	.section	__TEXT,__text,regular,pure_instructions
	.build_version macos, 10, 14	sdk_version 10, 14
	.globl	_main                   ## -- Begin function main
	.p2align	4, 0x90
_main:                                  ## @main
Lfunc_begin0:
	.cfi_startproc
	.cfi_personality 155, ___gxx_personality_v0
	.cfi_lsda 16, Lexception0
## %bb.0:
	pushq	%rbp
	.cfi_def_cfa_offset 16
	.cfi_offset %rbp, -16
	movq	%rsp, %rbp
	.cfi_def_cfa_register %rbp
	subq	$96, %rsp
	movl	$0, -4(%rbp)
	movl	%edi, -8(%rbp)
	movq	%rsi, -16(%rbp)
	movl	$40, %edi
                                        ## kill: def $rdi killed $edi
	callq	__Znwm
	movq	%rax, %rsi
	movq	%rax, %rdi
	xorps	%xmm0, %xmm0
	movaps	%xmm0, 16(%rax)
	movaps	%xmm0, (%rax)
	movq	$0, 32(%rax)
Ltmp0:
	movq	%rdi, -48(%rbp)         ## 8-byte Spill
	movq	%rax, %rdi
	movq	%rsi, -56(%rbp)         ## 8-byte Spill
	callq	__ZN7csce2404MeanC1Ev
Ltmp1:
	jmp	LBB0_1
LBB0_1:
	xorl	%eax, %eax
	movl	%eax, %ecx
	movq	-48(%rbp), %rdx         ## 8-byte Reload
	cmpq	$0, %rdx
	movq	%rcx, -64(%rbp)         ## 8-byte Spill
	je	LBB0_3
## %bb.2:
	movq	-48(%rbp), %rax         ## 8-byte Reload
	movq	(%rax), %rcx
	movq	-24(%rcx), %rcx
	addq	%rcx, %rax
	movq	%rax, -64(%rbp)         ## 8-byte Spill
LBB0_3:
	movq	-64(%rbp), %rax         ## 8-byte Reload
	movq	__ZNSt3__14coutE@GOTPCREL(%rip), %rdi
	movq	%rax, -24(%rbp)
	leaq	L_.str(%rip), %rsi
	callq	__ZNSt3__1lsINS_11char_traitsIcEEEERNS_13basic_ostreamIcT_EES6_PKc
	movq	%rax, %rdi
	leaq	__ZNSt3__1L4endlIcNS_11char_traitsIcEEEERNS_13basic_ostreamIT_T0_EES7_(%rip), %rsi
	callq	__ZNSt3__113basic_ostreamIcNS_11char_traitsIcEEElsEPFRS3_S4_E
	movq	-24(%rbp), %rdi
	movq	%rax, -72(%rbp)         ## 8-byte Spill
	callq	__Z17TestMeanCalculatePN7csce2409StatisticE
	testb	$1, %al
	jne	LBB0_6
## %bb.4:
	movq	__ZNSt3__14coutE@GOTPCREL(%rip), %rdi
	leaq	L_.str.1(%rip), %rsi
	callq	__ZNSt3__1lsINS_11char_traitsIcEEEERNS_13basic_ostreamIcT_EES6_PKc
	movq	%rax, %rdi
	leaq	__ZNSt3__1L4endlIcNS_11char_traitsIcEEEERNS_13basic_ostreamIT_T0_EES7_(%rip), %rsi
	callq	__ZNSt3__113basic_ostreamIcNS_11char_traitsIcEEElsEPFRS3_S4_E
	movl	$1, -4(%rbp)
	movq	%rax, -80(%rbp)         ## 8-byte Spill
	jmp	LBB0_9
LBB0_5:
Ltmp2:
	movl	%edx, %ecx
	movq	%rax, -32(%rbp)
	movl	%ecx, -36(%rbp)
	movq	-56(%rbp), %rdi         ## 8-byte Reload
	callq	__ZdlPv
	jmp	LBB0_10
LBB0_6:
	movq	__ZNSt3__14coutE@GOTPCREL(%rip), %rdi
	leaq	L_.str.2(%rip), %rsi
	callq	__ZNSt3__1lsINS_11char_traitsIcEEEERNS_13basic_ostreamIcT_EES6_PKc
	movq	%rax, %rdi
	leaq	__ZNSt3__1L4endlIcNS_11char_traitsIcEEEERNS_13basic_ostreamIT_T0_EES7_(%rip), %rsi
	callq	__ZNSt3__113basic_ostreamIcNS_11char_traitsIcEEElsEPFRS3_S4_E
	movq	-24(%rbp), %rsi
	cmpq	$0, %rsi
	movq	%rax, -88(%rbp)         ## 8-byte Spill
	movq	%rsi, -96(%rbp)         ## 8-byte Spill
	je	LBB0_8
## %bb.7:
	movq	-96(%rbp), %rax         ## 8-byte Reload
	movq	(%rax), %rcx
	movq	%rax, %rdi
	callq	*8(%rcx)
LBB0_8:
	movl	$0, -4(%rbp)
LBB0_9:
	movl	-4(%rbp), %eax
	addq	$96, %rsp
	popq	%rbp
	retq
LBB0_10:
	movq	-32(%rbp), %rdi
	callq	__Unwind_Resume
	ud2
Lfunc_end0:
	.cfi_endproc
	.section	__TEXT,__gcc_except_tab
	.p2align	2
GCC_except_table0:
Lexception0:
	.byte	255                     ## @LPStart Encoding = omit
	.byte	255                     ## @TType Encoding = omit
	.byte	1                       ## Call site Encoding = uleb128
	.uleb128 Lcst_end0-Lcst_begin0
Lcst_begin0:
	.uleb128 Lfunc_begin0-Lfunc_begin0 ## >> Call Site 1 <<
	.uleb128 Ltmp0-Lfunc_begin0     ##   Call between Lfunc_begin0 and Ltmp0
	.byte	0                       ##     has no landing pad
	.byte	0                       ##   On action: cleanup
	.uleb128 Ltmp0-Lfunc_begin0     ## >> Call Site 2 <<
	.uleb128 Ltmp1-Ltmp0            ##   Call between Ltmp0 and Ltmp1
	.uleb128 Ltmp2-Lfunc_begin0     ##     jumps to Ltmp2
	.byte	0                       ##   On action: cleanup
	.uleb128 Ltmp1-Lfunc_begin0     ## >> Call Site 3 <<
	.uleb128 Lfunc_end0-Ltmp1       ##   Call between Ltmp1 and Lfunc_end0
	.byte	0                       ##     has no landing pad
	.byte	0                       ##   On action: cleanup
Lcst_end0:
	.p2align	2
                                        ## -- End function
	.section	__TEXT,__text,regular,pure_instructions
	.globl	__ZN7csce2404MeanC1Ev   ## -- Begin function _ZN7csce2404MeanC1Ev
	.weak_def_can_be_hidden	__ZN7csce2404MeanC1Ev
	.p2align	4, 0x90
__ZN7csce2404MeanC1Ev:                  ## @_ZN7csce2404MeanC1Ev
	.cfi_startproc
## %bb.0:
	pushq	%rbp
	.cfi_def_cfa_offset 16
	.cfi_offset %rbp, -16
	movq	%rsp, %rbp
	.cfi_def_cfa_register %rbp
	subq	$16, %rsp
	movq	%rdi, -8(%rbp)
	movq	-8(%rbp), %rdi
	movq	%rdi, %rax
	addq	$8, %rax
	movq	%rdi, -16(%rbp)         ## 8-byte Spill
	movq	%rax, %rdi
	callq	__ZN7csce2409StatisticC2Ev
	movq	__ZTVN7csce2404MeanE@GOTPCREL(%rip), %rax
	movq	%rax, %rdi
	addq	$96, %rdi
	addq	$24, %rax
	movq	-16(%rbp), %rcx         ## 8-byte Reload
	movq	%rax, (%rcx)
	movq	%rdi, 8(%rcx)
	addq	$16, %rsp
	popq	%rbp
	retq
	.cfi_endproc
                                        ## -- End function
	.globl	__ZNSt3__1lsINS_11char_traitsIcEEEERNS_13basic_ostreamIcT_EES6_PKc ## -- Begin function _ZNSt3__1lsINS_11char_traitsIcEEEERNS_13basic_ostreamIcT_EES6_PKc
	.weak_definition	__ZNSt3__1lsINS_11char_traitsIcEEEERNS_13basic_ostreamIcT_EES6_PKc
	.p2align	4, 0x90
__ZNSt3__1lsINS_11char_traitsIcEEEERNS_13basic_ostreamIcT_EES6_PKc: ## @_ZNSt3__1lsINS_11char_traitsIcEEEERNS_13basic_ostreamIcT_EES6_PKc
	.cfi_startproc
## %bb.0:
	pushq	%rbp
	.cfi_def_cfa_offset 16
	.cfi_offset %rbp, -16
	movq	%rsp, %rbp
	.cfi_def_cfa_register %rbp
	subq	$32, %rsp
	movq	%rdi, -8(%rbp)
	movq	%rsi, -16(%rbp)
	movq	-8(%rbp), %rdi
	movq	-16(%rbp), %rsi
	movq	-16(%rbp), %rax
	movq	%rdi, -24(%rbp)         ## 8-byte Spill
	movq	%rax, %rdi
	movq	%rsi, -32(%rbp)         ## 8-byte Spill
	callq	__ZNSt3__111char_traitsIcE6lengthEPKc
	movq	-24(%rbp), %rdi         ## 8-byte Reload
	movq	-32(%rbp), %rsi         ## 8-byte Reload
	movq	%rax, %rdx
	callq	__ZNSt3__124__put_character_sequenceIcNS_11char_traitsIcEEEERNS_13basic_ostreamIT_T0_EES7_PKS4_m
	addq	$32, %rsp
	popq	%rbp
	retq
	.cfi_endproc
                                        ## -- End function
	.p2align	4, 0x90         ## -- Begin function _ZNSt3__113basic_ostreamIcNS_11char_traitsIcEEElsEPFRS3_S4_E
__ZNSt3__113basic_ostreamIcNS_11char_traitsIcEEElsEPFRS3_S4_E: ## @_ZNSt3__113basic_ostreamIcNS_11char_traitsIcEEElsEPFRS3_S4_E
	.cfi_startproc
## %bb.0:
	pushq	%rbp
	.cfi_def_cfa_offset 16
	.cfi_offset %rbp, -16
	movq	%rsp, %rbp
	.cfi_def_cfa_register %rbp
	subq	$16, %rsp
	movq	%rdi, -8(%rbp)
	movq	%rsi, -16(%rbp)
	movq	-8(%rbp), %rdi
	callq	*-16(%rbp)
	addq	$16, %rsp
	popq	%rbp
	retq
	.cfi_endproc
                                        ## -- End function
	.p2align	4, 0x90         ## -- Begin function _ZNSt3__1L4endlIcNS_11char_traitsIcEEEERNS_13basic_ostreamIT_T0_EES7_
__ZNSt3__1L4endlIcNS_11char_traitsIcEEEERNS_13basic_ostreamIT_T0_EES7_: ## @_ZNSt3__1L4endlIcNS_11char_traitsIcEEEERNS_13basic_ostreamIT_T0_EES7_
	.cfi_startproc
## %bb.0:
	pushq	%rbp
	.cfi_def_cfa_offset 16
	.cfi_offset %rbp, -16
	movq	%rsp, %rbp
	.cfi_def_cfa_register %rbp
	subq	$32, %rsp
	movq	%rdi, -8(%rbp)
	movq	-8(%rbp), %rdi
	movq	-8(%rbp), %rax
	movq	(%rax), %rcx
	movq	-24(%rcx), %rcx
	addq	%rcx, %rax
	movq	%rdi, -16(%rbp)         ## 8-byte Spill
	movq	%rax, %rdi
	movl	$10, %esi
	callq	__ZNKSt3__19basic_iosIcNS_11char_traitsIcEEE5widenEc
	movq	-16(%rbp), %rdi         ## 8-byte Reload
	movsbl	%al, %esi
	callq	__ZNSt3__113basic_ostreamIcNS_11char_traitsIcEEE3putEc
	movq	-8(%rbp), %rdi
	movq	%rax, -24(%rbp)         ## 8-byte Spill
	callq	__ZNSt3__113basic_ostreamIcNS_11char_traitsIcEEE5flushEv
	movq	-8(%rbp), %rcx
	movq	%rax, -32(%rbp)         ## 8-byte Spill
	movq	%rcx, %rax
	addq	$32, %rsp
	popq	%rbp
	retq
	.cfi_endproc
                                        ## -- End function
	.section	__TEXT,__literal8,8byte_literals
	.p2align	3               ## -- Begin function _Z17TestMeanCalculatePN7csce2409StatisticE
LCPI5_0:
	.quad	4634372901550266778     ## double 66.400000000000006
	.section	__TEXT,__text,regular,pure_instructions
	.globl	__Z17TestMeanCalculatePN7csce2409StatisticE
	.p2align	4, 0x90
__Z17TestMeanCalculatePN7csce2409StatisticE: ## @_Z17TestMeanCalculatePN7csce2409StatisticE
	.cfi_startproc
## %bb.0:
	pushq	%rbp
	.cfi_def_cfa_offset 16
	.cfi_offset %rbp, -16
	movq	%rsp, %rbp
	.cfi_def_cfa_register %rbp
	subq	$64, %rsp
	movsd	LCPI5_0(%rip), %xmm0    ## xmm0 = mem[0],zero
	movq	%rdi, -16(%rbp)
	movl	$5, -20(%rbp)
	movsd	%xmm0, -32(%rbp)
	movl	$0, -36(%rbp)
LBB5_1:                                 ## =>This Inner Loop Header: Depth=1
	cmpl	$5, -36(%rbp)
	jae	LBB5_4
## %bb.2:                               ##   in Loop: Header=BB5_1 Depth=1
	movq	-16(%rbp), %rax
	movl	-36(%rbp), %ecx
	movl	%ecx, %edx
	leaq	__ZZ17TestMeanCalculatePN7csce2409StatisticEE5kData(%rip), %rsi
	movsd	(%rsi,%rdx,8), %xmm0    ## xmm0 = mem[0],zero
	movq	(%rax), %rdx
	movq	%rax, %rdi
	callq	*16(%rdx)
## %bb.3:                               ##   in Loop: Header=BB5_1 Depth=1
	movl	-36(%rbp), %eax
	addl	$1, %eax
	movl	%eax, -36(%rbp)
	jmp	LBB5_1
LBB5_4:
	movq	-16(%rbp), %rax
	movq	(%rax), %rcx
	movq	%rax, %rdi
	callq	*24(%rcx)
	movsd	LCPI5_0(%rip), %xmm1    ## xmm1 = mem[0],zero
	movsd	%xmm0, -48(%rbp)
	ucomisd	-48(%rbp), %xmm1
	jne	LBB5_5
	jp	LBB5_5
	jmp	LBB5_6
LBB5_5:
	movq	__ZNSt3__14coutE@GOTPCREL(%rip), %rdi
	leaq	L_.str.3(%rip), %rsi
	callq	__ZNSt3__1lsINS_11char_traitsIcEEEERNS_13basic_ostreamIcT_EES6_PKc
	movsd	LCPI5_0(%rip), %xmm0    ## xmm0 = mem[0],zero
	movq	%rax, %rdi
	callq	__ZNSt3__113basic_ostreamIcNS_11char_traitsIcEEElsEd
	movq	%rax, %rdi
	leaq	L_.str.4(%rip), %rsi
	callq	__ZNSt3__1lsINS_11char_traitsIcEEEERNS_13basic_ostreamIcT_EES6_PKc
	movsd	-48(%rbp), %xmm0        ## xmm0 = mem[0],zero
	movq	%rax, %rdi
	callq	__ZNSt3__113basic_ostreamIcNS_11char_traitsIcEEElsEd
	movq	%rax, %rdi
	leaq	__ZNSt3__1L4endlIcNS_11char_traitsIcEEEERNS_13basic_ostreamIT_T0_EES7_(%rip), %rsi
	callq	__ZNSt3__113basic_ostreamIcNS_11char_traitsIcEEElsEPFRS3_S4_E
	movb	$0, -1(%rbp)
	movq	%rax, -56(%rbp)         ## 8-byte Spill
	jmp	LBB5_7
LBB5_6:
	movb	$1, -1(%rbp)
LBB5_7:
	movb	-1(%rbp), %al
	andb	$1, %al
	movzbl	%al, %eax
	addq	$64, %rsp
	popq	%rbp
	retq
	.cfi_endproc
                                        ## -- End function
	.globl	__ZN7csce2409StatisticC2Ev ## -- Begin function _ZN7csce2409StatisticC2Ev
	.weak_def_can_be_hidden	__ZN7csce2409StatisticC2Ev
	.p2align	4, 0x90
__ZN7csce2409StatisticC2Ev:             ## @_ZN7csce2409StatisticC2Ev
	.cfi_startproc
## %bb.0:
	pushq	%rbp
	.cfi_def_cfa_offset 16
	.cfi_offset %rbp, -16
	movq	%rsp, %rbp
	.cfi_def_cfa_register %rbp
	subq	$16, %rsp
	movq	%rdi, -8(%rbp)
	movq	-8(%rbp), %rdi
	movq	%rdi, %rax
	addq	$8, %rax
	movq	%rdi, -16(%rbp)         ## 8-byte Spill
	movq	%rax, %rdi
	callq	__ZNSt3__16vectorIdNS_9allocatorIdEEEC2Ev
	movq	__ZTVN7csce2409StatisticE@GOTPCREL(%rip), %rax
	addq	$16, %rax
	movq	-16(%rbp), %rdi         ## 8-byte Reload
	movq	%rax, (%rdi)
	addq	$16, %rsp
	popq	%rbp
	retq
	.cfi_endproc
                                        ## -- End function
	.p2align	4, 0x90         ## -- Begin function _ZNSt3__16vectorIdNS_9allocatorIdEEEC2Ev
__ZNSt3__16vectorIdNS_9allocatorIdEEEC2Ev: ## @_ZNSt3__16vectorIdNS_9allocatorIdEEEC2Ev
	.cfi_startproc
## %bb.0:
	pushq	%rbp
	.cfi_def_cfa_offset 16
	.cfi_offset %rbp, -16
	movq	%rsp, %rbp
	.cfi_def_cfa_register %rbp
	subq	$16, %rsp
	movq	%rdi, -8(%rbp)
	movq	-8(%rbp), %rdi
	callq	__ZNSt3__113__vector_baseIdNS_9allocatorIdEEEC2Ev
	addq	$16, %rsp
	popq	%rbp
	retq
	.cfi_endproc
                                        ## -- End function
	.globl	__ZN7csce2409StatisticD1Ev ## -- Begin function _ZN7csce2409StatisticD1Ev
	.weak_def_can_be_hidden	__ZN7csce2409StatisticD1Ev
	.p2align	4, 0x90
__ZN7csce2409StatisticD1Ev:             ## @_ZN7csce2409StatisticD1Ev
	.cfi_startproc
## %bb.0:
	pushq	%rbp
	.cfi_def_cfa_offset 16
	.cfi_offset %rbp, -16
	movq	%rsp, %rbp
	.cfi_def_cfa_register %rbp
	movq	%rdi, -8(%rbp)
	ud2
	.cfi_endproc
                                        ## -- End function
	.globl	__ZN7csce2409StatisticD0Ev ## -- Begin function _ZN7csce2409StatisticD0Ev
	.weak_def_can_be_hidden	__ZN7csce2409StatisticD0Ev
	.p2align	4, 0x90
__ZN7csce2409StatisticD0Ev:             ## @_ZN7csce2409StatisticD0Ev
	.cfi_startproc
## %bb.0:
	pushq	%rbp
	.cfi_def_cfa_offset 16
	.cfi_offset %rbp, -16
	movq	%rsp, %rbp
	.cfi_def_cfa_register %rbp
	movq	%rdi, -8(%rbp)
	ud2
	.cfi_endproc
                                        ## -- End function
	.p2align	4, 0x90         ## -- Begin function _ZNSt3__113__vector_baseIdNS_9allocatorIdEEEC2Ev
__ZNSt3__113__vector_baseIdNS_9allocatorIdEEEC2Ev: ## @_ZNSt3__113__vector_baseIdNS_9allocatorIdEEEC2Ev
	.cfi_startproc
## %bb.0:
	pushq	%rbp
	.cfi_def_cfa_offset 16
	.cfi_offset %rbp, -16
	movq	%rsp, %rbp
	.cfi_def_cfa_register %rbp
	subq	$48, %rsp
	movq	%rdi, -8(%rbp)
	movq	-8(%rbp), %rdi
	movq	%rdi, %rax
	movq	%rdi, -40(%rbp)         ## 8-byte Spill
	movq	%rax, %rdi
	callq	__ZNSt3__120__vector_base_commonILb1EEC2Ev
	callq	__ZNSt3__1L15__get_nullptr_tEv
	movq	%rax, -16(%rbp)
	leaq	-16(%rbp), %rdi
	callq	__ZNKSt3__19nullptr_tcvPT_IdEEv
	movq	-40(%rbp), %rdi         ## 8-byte Reload
	movq	%rax, (%rdi)
	callq	__ZNSt3__1L15__get_nullptr_tEv
	movq	%rax, -24(%rbp)
	leaq	-24(%rbp), %rdi
	callq	__ZNKSt3__19nullptr_tcvPT_IdEEv
	movq	-40(%rbp), %rdi         ## 8-byte Reload
	movq	%rax, 8(%rdi)
	addq	$16, %rdi
	movq	%rdi, -48(%rbp)         ## 8-byte Spill
	callq	__ZNSt3__1L15__get_nullptr_tEv
	movq	%rax, -32(%rbp)
	leaq	-32(%rbp), %rdi
	callq	__ZNKSt3__19nullptr_tcvPT_IdEEv
	movq	-48(%rbp), %rdi         ## 8-byte Reload
	movq	%rax, %rsi
	callq	__ZNSt3__117__compressed_pairIPdNS_9allocatorIdEEEC1ES1_
	addq	$48, %rsp
	popq	%rbp
	retq
	.cfi_endproc
                                        ## -- End function
	.p2align	4, 0x90         ## -- Begin function _ZNSt3__120__vector_base_commonILb1EEC2Ev
__ZNSt3__120__vector_base_commonILb1EEC2Ev: ## @_ZNSt3__120__vector_base_commonILb1EEC2Ev
	.cfi_startproc
## %bb.0:
	pushq	%rbp
	.cfi_def_cfa_offset 16
	.cfi_offset %rbp, -16
	movq	%rsp, %rbp
	.cfi_def_cfa_register %rbp
	movq	%rdi, -8(%rbp)
	popq	%rbp
	retq
	.cfi_endproc
                                        ## -- End function
	.p2align	4, 0x90         ## -- Begin function _ZNSt3__1L15__get_nullptr_tEv
__ZNSt3__1L15__get_nullptr_tEv:         ## @_ZNSt3__1L15__get_nullptr_tEv
	.cfi_startproc
## %bb.0:
	pushq	%rbp
	.cfi_def_cfa_offset 16
	.cfi_offset %rbp, -16
	movq	%rsp, %rbp
	.cfi_def_cfa_register %rbp
	subq	$16, %rsp
	leaq	-8(%rbp), %rdi
	movq	$-1, %rsi
	callq	__ZNSt3__19nullptr_tC1EMNS0_5__natEi
	movq	-8(%rbp), %rax
	addq	$16, %rsp
	popq	%rbp
	retq
	.cfi_endproc
                                        ## -- End function
	.p2align	4, 0x90         ## -- Begin function _ZNKSt3__19nullptr_tcvPT_IdEEv
__ZNKSt3__19nullptr_tcvPT_IdEEv:        ## @_ZNKSt3__19nullptr_tcvPT_IdEEv
	.cfi_startproc
## %bb.0:
	pushq	%rbp
	.cfi_def_cfa_offset 16
	.cfi_offset %rbp, -16
	movq	%rsp, %rbp
	.cfi_def_cfa_register %rbp
	xorl	%eax, %eax
                                        ## kill: def $rax killed $eax
	movq	%rdi, -8(%rbp)
	popq	%rbp
	retq
	.cfi_endproc
                                        ## -- End function
	.p2align	4, 0x90         ## -- Begin function _ZNSt3__117__compressed_pairIPdNS_9allocatorIdEEEC1ES1_
__ZNSt3__117__compressed_pairIPdNS_9allocatorIdEEEC1ES1_: ## @_ZNSt3__117__compressed_pairIPdNS_9allocatorIdEEEC1ES1_
	.cfi_startproc
## %bb.0:
	pushq	%rbp
	.cfi_def_cfa_offset 16
	.cfi_offset %rbp, -16
	movq	%rsp, %rbp
	.cfi_def_cfa_register %rbp
	subq	$16, %rsp
	movq	%rdi, -8(%rbp)
	movq	%rsi, -16(%rbp)
	movq	-8(%rbp), %rdi
	movq	-16(%rbp), %rsi
	callq	__ZNSt3__117__compressed_pairIPdNS_9allocatorIdEEEC2ES1_
	addq	$16, %rsp
	popq	%rbp
	retq
	.cfi_endproc
                                        ## -- End function
	.p2align	4, 0x90         ## -- Begin function _ZNSt3__19nullptr_tC1EMNS0_5__natEi
__ZNSt3__19nullptr_tC1EMNS0_5__natEi:   ## @_ZNSt3__19nullptr_tC1EMNS0_5__natEi
	.cfi_startproc
## %bb.0:
	pushq	%rbp
	.cfi_def_cfa_offset 16
	.cfi_offset %rbp, -16
	movq	%rsp, %rbp
	.cfi_def_cfa_register %rbp
	subq	$16, %rsp
	movq	%rdi, -8(%rbp)
	movq	%rsi, -16(%rbp)
	movq	-8(%rbp), %rdi
	movq	-16(%rbp), %rsi
	callq	__ZNSt3__19nullptr_tC2EMNS0_5__natEi
	addq	$16, %rsp
	popq	%rbp
	retq
	.cfi_endproc
                                        ## -- End function
	.p2align	4, 0x90         ## -- Begin function _ZNSt3__19nullptr_tC2EMNS0_5__natEi
__ZNSt3__19nullptr_tC2EMNS0_5__natEi:   ## @_ZNSt3__19nullptr_tC2EMNS0_5__natEi
	.cfi_startproc
## %bb.0:
	pushq	%rbp
	.cfi_def_cfa_offset 16
	.cfi_offset %rbp, -16
	movq	%rsp, %rbp
	.cfi_def_cfa_register %rbp
	movq	%rdi, -8(%rbp)
	movq	%rsi, -16(%rbp)
	movq	-8(%rbp), %rsi
	movq	$0, (%rsi)
	popq	%rbp
	retq
	.cfi_endproc
                                        ## -- End function
	.p2align	4, 0x90         ## -- Begin function _ZNSt3__117__compressed_pairIPdNS_9allocatorIdEEEC2ES1_
__ZNSt3__117__compressed_pairIPdNS_9allocatorIdEEEC2ES1_: ## @_ZNSt3__117__compressed_pairIPdNS_9allocatorIdEEEC2ES1_
	.cfi_startproc
## %bb.0:
	pushq	%rbp
	.cfi_def_cfa_offset 16
	.cfi_offset %rbp, -16
	movq	%rsp, %rbp
	.cfi_def_cfa_register %rbp
	subq	$32, %rsp
	movq	%rdi, -8(%rbp)
	movq	%rsi, -16(%rbp)
	movq	-8(%rbp), %rsi
	movq	%rsi, %rdi
	leaq	-16(%rbp), %rax
	movq	%rdi, -24(%rbp)         ## 8-byte Spill
	movq	%rax, %rdi
	movq	%rsi, -32(%rbp)         ## 8-byte Spill
	callq	__ZNSt3__1L7forwardIPdEERT_RNS_16remove_referenceIS2_E4typeE
	movq	(%rax), %rsi
	movq	-24(%rbp), %rdi         ## 8-byte Reload
	callq	__ZNSt3__122__compressed_pair_elemIPdLi0ELb0EEC2ES1_
	movq	-32(%rbp), %rax         ## 8-byte Reload
	movq	%rax, %rdi
	callq	__ZNSt3__122__compressed_pair_elemINS_9allocatorIdEELi1ELb1EEC2Ev
	addq	$32, %rsp
	popq	%rbp
	retq
	.cfi_endproc
                                        ## -- End function
	.p2align	4, 0x90         ## -- Begin function _ZNSt3__1L7forwardIPdEERT_RNS_16remove_referenceIS2_E4typeE
__ZNSt3__1L7forwardIPdEERT_RNS_16remove_referenceIS2_E4typeE: ## @_ZNSt3__1L7forwardIPdEERT_RNS_16remove_referenceIS2_E4typeE
	.cfi_startproc
## %bb.0:
	pushq	%rbp
	.cfi_def_cfa_offset 16
	.cfi_offset %rbp, -16
	movq	%rsp, %rbp
	.cfi_def_cfa_register %rbp
	movq	%rdi, -8(%rbp)
	movq	-8(%rbp), %rax
	popq	%rbp
	retq
	.cfi_endproc
                                        ## -- End function
	.p2align	4, 0x90         ## -- Begin function _ZNSt3__122__compressed_pair_elemIPdLi0ELb0EEC2ES1_
__ZNSt3__122__compressed_pair_elemIPdLi0ELb0EEC2ES1_: ## @_ZNSt3__122__compressed_pair_elemIPdLi0ELb0EEC2ES1_
	.cfi_startproc
## %bb.0:
	pushq	%rbp
	.cfi_def_cfa_offset 16
	.cfi_offset %rbp, -16
	movq	%rsp, %rbp
	.cfi_def_cfa_register %rbp
	subq	$32, %rsp
	movq	%rdi, -8(%rbp)
	movq	%rsi, -16(%rbp)
	movq	-8(%rbp), %rsi
	leaq	-16(%rbp), %rdi
	movq	%rsi, -24(%rbp)         ## 8-byte Spill
	callq	__ZNSt3__1L7forwardIPdEERT_RNS_16remove_referenceIS2_E4typeE
	movq	(%rax), %rax
	movq	-24(%rbp), %rsi         ## 8-byte Reload
	movq	%rax, (%rsi)
	addq	$32, %rsp
	popq	%rbp
	retq
	.cfi_endproc
                                        ## -- End function
	.p2align	4, 0x90         ## -- Begin function _ZNSt3__122__compressed_pair_elemINS_9allocatorIdEELi1ELb1EEC2Ev
__ZNSt3__122__compressed_pair_elemINS_9allocatorIdEELi1ELb1EEC2Ev: ## @_ZNSt3__122__compressed_pair_elemINS_9allocatorIdEELi1ELb1EEC2Ev
	.cfi_startproc
## %bb.0:
	pushq	%rbp
	.cfi_def_cfa_offset 16
	.cfi_offset %rbp, -16
	movq	%rsp, %rbp
	.cfi_def_cfa_register %rbp
	subq	$16, %rsp
	movq	%rdi, -8(%rbp)
	movq	-8(%rbp), %rdi
	callq	__ZNSt3__19allocatorIdEC2Ev
	addq	$16, %rsp
	popq	%rbp
	retq
	.cfi_endproc
                                        ## -- End function
	.p2align	4, 0x90         ## -- Begin function _ZNSt3__19allocatorIdEC2Ev
__ZNSt3__19allocatorIdEC2Ev:            ## @_ZNSt3__19allocatorIdEC2Ev
	.cfi_startproc
## %bb.0:
	pushq	%rbp
	.cfi_def_cfa_offset 16
	.cfi_offset %rbp, -16
	movq	%rsp, %rbp
	.cfi_def_cfa_register %rbp
	movq	%rdi, -8(%rbp)
	popq	%rbp
	retq
	.cfi_endproc
                                        ## -- End function
	.globl	__ZNSt3__124__put_character_sequenceIcNS_11char_traitsIcEEEERNS_13basic_ostreamIT_T0_EES7_PKS4_m ## -- Begin function _ZNSt3__124__put_character_sequenceIcNS_11char_traitsIcEEEERNS_13basic_ostreamIT_T0_EES7_PKS4_m
	.weak_definition	__ZNSt3__124__put_character_sequenceIcNS_11char_traitsIcEEEERNS_13basic_ostreamIT_T0_EES7_PKS4_m
	.p2align	4, 0x90
__ZNSt3__124__put_character_sequenceIcNS_11char_traitsIcEEEERNS_13basic_ostreamIT_T0_EES7_PKS4_m: ## @_ZNSt3__124__put_character_sequenceIcNS_11char_traitsIcEEEERNS_13basic_ostreamIT_T0_EES7_PKS4_m
Lfunc_begin1:
	.cfi_startproc
	.cfi_personality 155, ___gxx_personality_v0
	.cfi_lsda 16, Lexception1
## %bb.0:
	pushq	%rbp
	.cfi_def_cfa_offset 16
	.cfi_offset %rbp, -16
	movq	%rsp, %rbp
	.cfi_def_cfa_register %rbp
	subq	$160, %rsp
	movq	%rdi, -8(%rbp)
	movq	%rsi, -16(%rbp)
	movq	%rdx, -24(%rbp)
	movq	-8(%rbp), %rsi
Ltmp3:
	leaq	-40(%rbp), %rdi
	callq	__ZNSt3__113basic_ostreamIcNS_11char_traitsIcEEE6sentryC1ERS3_
Ltmp4:
	jmp	LBB22_1
LBB22_1:
Ltmp5:
	leaq	-40(%rbp), %rdi
	callq	__ZNKSt3__113basic_ostreamIcNS_11char_traitsIcEEE6sentrycvbEv
Ltmp6:
	movb	%al, -73(%rbp)          ## 1-byte Spill
	jmp	LBB22_2
LBB22_2:
	movb	-73(%rbp), %al          ## 1-byte Reload
	testb	$1, %al
	jne	LBB22_3
	jmp	LBB22_15
LBB22_3:
	movq	-8(%rbp), %rsi
	leaq	-72(%rbp), %rdi
	callq	__ZNSt3__119ostreambuf_iteratorIcNS_11char_traitsIcEEEC1ERNS_13basic_ostreamIcS2_EE
	movq	-16(%rbp), %rsi
	movq	-8(%rbp), %rdi
	movq	(%rdi), %rax
	movq	-24(%rax), %rax
	addq	%rax, %rdi
Ltmp7:
	movq	%rsi, -88(%rbp)         ## 8-byte Spill
	callq	__ZNKSt3__18ios_base5flagsEv
Ltmp8:
	movl	%eax, -92(%rbp)         ## 4-byte Spill
	jmp	LBB22_4
LBB22_4:
	movl	-92(%rbp), %eax         ## 4-byte Reload
	andl	$176, %eax
	cmpl	$32, %eax
	jne	LBB22_6
## %bb.5:
	movq	-16(%rbp), %rax
	addq	-24(%rbp), %rax
	movq	%rax, -104(%rbp)        ## 8-byte Spill
	jmp	LBB22_7
LBB22_6:
	movq	-16(%rbp), %rax
	movq	%rax, -104(%rbp)        ## 8-byte Spill
LBB22_7:
	movq	-104(%rbp), %rax        ## 8-byte Reload
	movq	-16(%rbp), %rcx
	movq	-24(%rbp), %rdx
	addq	%rdx, %rcx
	movq	-8(%rbp), %rdx
	movq	(%rdx), %rsi
	movq	-24(%rsi), %rsi
	addq	%rsi, %rdx
Ltmp9:
	movq	%rdx, %rdi
	movq	%rax, -112(%rbp)        ## 8-byte Spill
	movq	%rcx, -120(%rbp)        ## 8-byte Spill
	movq	%rdx, -128(%rbp)        ## 8-byte Spill
	callq	__ZNKSt3__19basic_iosIcNS_11char_traitsIcEEE4fillEv
Ltmp10:
	movb	%al, -129(%rbp)         ## 1-byte Spill
	jmp	LBB22_8
LBB22_8:
	movq	-72(%rbp), %rdi
Ltmp11:
	movb	-129(%rbp), %al         ## 1-byte Reload
	movsbl	%al, %r9d
	movq	-88(%rbp), %rsi         ## 8-byte Reload
	movq	-112(%rbp), %rdx        ## 8-byte Reload
	movq	-120(%rbp), %rcx        ## 8-byte Reload
	movq	-128(%rbp), %r8         ## 8-byte Reload
	callq	__ZNSt3__116__pad_and_outputIcNS_11char_traitsIcEEEENS_19ostreambuf_iteratorIT_T0_EES6_PKS4_S8_S8_RNS_8ios_baseES4_
Ltmp12:
	movq	%rax, -144(%rbp)        ## 8-byte Spill
	jmp	LBB22_9
LBB22_9:
	movq	-144(%rbp), %rax        ## 8-byte Reload
	movq	%rax, -64(%rbp)
	leaq	-64(%rbp), %rdi
	callq	__ZNKSt3__119ostreambuf_iteratorIcNS_11char_traitsIcEEE6failedEv
	testb	$1, %al
	jne	LBB22_10
	jmp	LBB22_14
LBB22_10:
	movq	-8(%rbp), %rax
	movq	(%rax), %rcx
	movq	-24(%rcx), %rcx
	addq	%rcx, %rax
Ltmp13:
	movl	$5, %esi
	movq	%rax, %rdi
	callq	__ZNSt3__19basic_iosIcNS_11char_traitsIcEEE8setstateEj
Ltmp14:
	jmp	LBB22_11
LBB22_11:
	jmp	LBB22_14
LBB22_12:
Ltmp20:
	movl	%edx, %ecx
	movq	%rax, -48(%rbp)
	movl	%ecx, -52(%rbp)
	jmp	LBB22_18
LBB22_13:
Ltmp15:
	movl	%edx, %ecx
	movq	%rax, -48(%rbp)
	movl	%ecx, -52(%rbp)
Ltmp16:
	leaq	-40(%rbp), %rdi
	callq	__ZNSt3__113basic_ostreamIcNS_11char_traitsIcEEE6sentryD1Ev
Ltmp17:
	jmp	LBB22_17
LBB22_14:
	jmp	LBB22_15
LBB22_15:
Ltmp18:
	leaq	-40(%rbp), %rdi
	callq	__ZNSt3__113basic_ostreamIcNS_11char_traitsIcEEE6sentryD1Ev
Ltmp19:
	jmp	LBB22_16
LBB22_16:
	jmp	LBB22_20
LBB22_17:
	jmp	LBB22_18
LBB22_18:
	movq	-48(%rbp), %rdi
	callq	___cxa_begin_catch
	movq	-8(%rbp), %rdi
	movq	(%rdi), %rcx
	movq	-24(%rcx), %rcx
	addq	%rcx, %rdi
Ltmp21:
	movq	%rax, -152(%rbp)        ## 8-byte Spill
	callq	__ZNSt3__18ios_base33__set_badbit_and_consider_rethrowEv
Ltmp22:
	jmp	LBB22_19
LBB22_19:
	callq	___cxa_end_catch
LBB22_20:
	movq	-8(%rbp), %rax
	addq	$160, %rsp
	popq	%rbp
	retq
LBB22_21:
Ltmp23:
	movl	%edx, %ecx
	movq	%rax, -48(%rbp)
	movl	%ecx, -52(%rbp)
Ltmp24:
	callq	___cxa_end_catch
Ltmp25:
	jmp	LBB22_22
LBB22_22:
	jmp	LBB22_23
LBB22_23:
	movq	-48(%rbp), %rdi
	callq	__Unwind_Resume
	ud2
LBB22_24:
Ltmp26:
	movq	%rax, %rdi
	movq	%rdx, -160(%rbp)        ## 8-byte Spill
	callq	___clang_call_terminate
Lfunc_end1:
	.cfi_endproc
	.section	__TEXT,__gcc_except_tab
	.p2align	2
GCC_except_table22:
Lexception1:
	.byte	255                     ## @LPStart Encoding = omit
	.byte	155                     ## @TType Encoding = indirect pcrel sdata4
	.uleb128 Lttbase0-Lttbaseref0
Lttbaseref0:
	.byte	1                       ## Call site Encoding = uleb128
	.uleb128 Lcst_end1-Lcst_begin1
Lcst_begin1:
	.uleb128 Ltmp3-Lfunc_begin1     ## >> Call Site 1 <<
	.uleb128 Ltmp4-Ltmp3            ##   Call between Ltmp3 and Ltmp4
	.uleb128 Ltmp20-Lfunc_begin1    ##     jumps to Ltmp20
	.byte	1                       ##   On action: 1
	.uleb128 Ltmp5-Lfunc_begin1     ## >> Call Site 2 <<
	.uleb128 Ltmp14-Ltmp5           ##   Call between Ltmp5 and Ltmp14
	.uleb128 Ltmp15-Lfunc_begin1    ##     jumps to Ltmp15
	.byte	1                       ##   On action: 1
	.uleb128 Ltmp16-Lfunc_begin1    ## >> Call Site 3 <<
	.uleb128 Ltmp17-Ltmp16          ##   Call between Ltmp16 and Ltmp17
	.uleb128 Ltmp26-Lfunc_begin1    ##     jumps to Ltmp26
	.byte	1                       ##   On action: 1
	.uleb128 Ltmp18-Lfunc_begin1    ## >> Call Site 4 <<
	.uleb128 Ltmp19-Ltmp18          ##   Call between Ltmp18 and Ltmp19
	.uleb128 Ltmp20-Lfunc_begin1    ##     jumps to Ltmp20
	.byte	1                       ##   On action: 1
	.uleb128 Ltmp19-Lfunc_begin1    ## >> Call Site 5 <<
	.uleb128 Ltmp21-Ltmp19          ##   Call between Ltmp19 and Ltmp21
	.byte	0                       ##     has no landing pad
	.byte	0                       ##   On action: cleanup
	.uleb128 Ltmp21-Lfunc_begin1    ## >> Call Site 6 <<
	.uleb128 Ltmp22-Ltmp21          ##   Call between Ltmp21 and Ltmp22
	.uleb128 Ltmp23-Lfunc_begin1    ##     jumps to Ltmp23
	.byte	0                       ##   On action: cleanup
	.uleb128 Ltmp22-Lfunc_begin1    ## >> Call Site 7 <<
	.uleb128 Ltmp24-Ltmp22          ##   Call between Ltmp22 and Ltmp24
	.byte	0                       ##     has no landing pad
	.byte	0                       ##   On action: cleanup
	.uleb128 Ltmp24-Lfunc_begin1    ## >> Call Site 8 <<
	.uleb128 Ltmp25-Ltmp24          ##   Call between Ltmp24 and Ltmp25
	.uleb128 Ltmp26-Lfunc_begin1    ##     jumps to Ltmp26
	.byte	1                       ##   On action: 1
	.uleb128 Ltmp25-Lfunc_begin1    ## >> Call Site 9 <<
	.uleb128 Lfunc_end1-Ltmp25      ##   Call between Ltmp25 and Lfunc_end1
	.byte	0                       ##     has no landing pad
	.byte	0                       ##   On action: cleanup
Lcst_end1:
	.byte	1                       ## >> Action Record 1 <<
                                        ##   Catch TypeInfo 1
	.byte	0                       ##   No further actions
	.p2align	2
                                        ## >> Catch TypeInfos <<
	.long	0                       ## TypeInfo 1
Lttbase0:
	.p2align	2
                                        ## -- End function
	.section	__TEXT,__text,regular,pure_instructions
	.globl	__ZNSt3__111char_traitsIcE6lengthEPKc ## -- Begin function _ZNSt3__111char_traitsIcE6lengthEPKc
	.weak_definition	__ZNSt3__111char_traitsIcE6lengthEPKc
	.p2align	4, 0x90
__ZNSt3__111char_traitsIcE6lengthEPKc:  ## @_ZNSt3__111char_traitsIcE6lengthEPKc
	.cfi_startproc
## %bb.0:
	pushq	%rbp
	.cfi_def_cfa_offset 16
	.cfi_offset %rbp, -16
	movq	%rsp, %rbp
	.cfi_def_cfa_register %rbp
	subq	$16, %rsp
	movq	%rdi, -8(%rbp)
	movq	-8(%rbp), %rdi
	callq	_strlen
	addq	$16, %rsp
	popq	%rbp
	retq
	.cfi_endproc
                                        ## -- End function
	.p2align	4, 0x90         ## -- Begin function _ZNKSt3__113basic_ostreamIcNS_11char_traitsIcEEE6sentrycvbEv
__ZNKSt3__113basic_ostreamIcNS_11char_traitsIcEEE6sentrycvbEv: ## @_ZNKSt3__113basic_ostreamIcNS_11char_traitsIcEEE6sentrycvbEv
	.cfi_startproc
## %bb.0:
	pushq	%rbp
	.cfi_def_cfa_offset 16
	.cfi_offset %rbp, -16
	movq	%rsp, %rbp
	.cfi_def_cfa_register %rbp
	movq	%rdi, -8(%rbp)
	movq	-8(%rbp), %rdi
	movb	(%rdi), %al
	andb	$1, %al
	movzbl	%al, %eax
	popq	%rbp
	retq
	.cfi_endproc
                                        ## -- End function
	.private_extern	__ZNSt3__116__pad_and_outputIcNS_11char_traitsIcEEEENS_19ostreambuf_iteratorIT_T0_EES6_PKS4_S8_S8_RNS_8ios_baseES4_ ## -- Begin function _ZNSt3__116__pad_and_outputIcNS_11char_traitsIcEEEENS_19ostreambuf_iteratorIT_T0_EES6_PKS4_S8_S8_RNS_8ios_baseES4_
	.globl	__ZNSt3__116__pad_and_outputIcNS_11char_traitsIcEEEENS_19ostreambuf_iteratorIT_T0_EES6_PKS4_S8_S8_RNS_8ios_baseES4_
	.weak_definition	__ZNSt3__116__pad_and_outputIcNS_11char_traitsIcEEEENS_19ostreambuf_iteratorIT_T0_EES6_PKS4_S8_S8_RNS_8ios_baseES4_
	.p2align	4, 0x90
__ZNSt3__116__pad_and_outputIcNS_11char_traitsIcEEEENS_19ostreambuf_iteratorIT_T0_EES6_PKS4_S8_S8_RNS_8ios_baseES4_: ## @_ZNSt3__116__pad_and_outputIcNS_11char_traitsIcEEEENS_19ostreambuf_iteratorIT_T0_EES6_PKS4_S8_S8_RNS_8ios_baseES4_
Lfunc_begin2:
	.cfi_startproc
	.cfi_personality 155, ___gxx_personality_v0
	.cfi_lsda 16, Lexception2
## %bb.0:
	pushq	%rbp
	.cfi_def_cfa_offset 16
	.cfi_offset %rbp, -16
	movq	%rsp, %rbp
	.cfi_def_cfa_register %rbp
	subq	$240, %rsp
	movb	%r9b, %al
	movq	%rdi, -16(%rbp)
	movq	%rsi, -24(%rbp)
	movq	%rdx, -32(%rbp)
	movq	%rcx, -40(%rbp)
	movq	%r8, -48(%rbp)
	movb	%al, -49(%rbp)
	movq	-16(%rbp), %rcx
	movq	%rcx, -168(%rbp)        ## 8-byte Spill
	callq	__ZNSt3__1L15__get_nullptr_tEv
	movq	%rax, -64(%rbp)
	leaq	-64(%rbp), %rdi
	callq	__ZNKSt3__19nullptr_tcvPT_INS_15basic_streambufIcNS_11char_traitsIcEEEEEEv
	movq	-168(%rbp), %rcx        ## 8-byte Reload
	cmpq	%rax, %rcx
	jne	LBB25_2
## %bb.1:
	movq	-16(%rbp), %rax
	movq	%rax, -8(%rbp)
	jmp	LBB25_25
LBB25_2:
	movq	-40(%rbp), %rax
	movq	-24(%rbp), %rcx
	subq	%rcx, %rax
	movq	%rax, -72(%rbp)
	movq	-48(%rbp), %rdi
	callq	__ZNKSt3__18ios_base5widthEv
	movq	%rax, -80(%rbp)
	movq	-80(%rbp), %rax
	cmpq	-72(%rbp), %rax
	jle	LBB25_4
## %bb.3:
	movq	-72(%rbp), %rax
	movq	-80(%rbp), %rcx
	subq	%rax, %rcx
	movq	%rcx, -80(%rbp)
	jmp	LBB25_5
LBB25_4:
	movq	$0, -80(%rbp)
LBB25_5:
	movq	-32(%rbp), %rax
	movq	-24(%rbp), %rcx
	subq	%rcx, %rax
	movq	%rax, -88(%rbp)
	cmpq	$0, -88(%rbp)
	jle	LBB25_9
## %bb.6:
	movq	-16(%rbp), %rdi
	movq	-24(%rbp), %rsi
	movq	-88(%rbp), %rdx
	callq	__ZNSt3__115basic_streambufIcNS_11char_traitsIcEEE5sputnEPKcl
	cmpq	-88(%rbp), %rax
	je	LBB25_8
## %bb.7:
	callq	__ZNSt3__1L15__get_nullptr_tEv
	movq	%rax, -96(%rbp)
	leaq	-96(%rbp), %rdi
	callq	__ZNKSt3__19nullptr_tcvPT_INS_15basic_streambufIcNS_11char_traitsIcEEEEEEv
	movq	%rax, -16(%rbp)
	movq	-16(%rbp), %rax
	movq	%rax, -8(%rbp)
	jmp	LBB25_25
LBB25_8:
	jmp	LBB25_9
LBB25_9:
	cmpq	$0, -80(%rbp)
	jle	LBB25_20
## %bb.10:
	movq	-80(%rbp), %rsi
	movsbl	-49(%rbp), %edx
	leaq	-120(%rbp), %rax
	movq	%rax, %rdi
	movq	%rax, -176(%rbp)        ## 8-byte Spill
	callq	__ZNSt3__112basic_stringIcNS_11char_traitsIcEENS_9allocatorIcEEEC1Emc
	movq	-16(%rbp), %rdi
	movq	-176(%rbp), %rax        ## 8-byte Reload
	movq	%rdi, -184(%rbp)        ## 8-byte Spill
	movq	%rax, %rdi
	callq	__ZNKSt3__112basic_stringIcNS_11char_traitsIcEENS_9allocatorIcEEE4dataEv
	movq	-80(%rbp), %rdx
Ltmp27:
	movq	-184(%rbp), %rdi        ## 8-byte Reload
	movq	%rax, %rsi
	callq	__ZNSt3__115basic_streambufIcNS_11char_traitsIcEEE5sputnEPKcl
Ltmp28:
	movq	%rax, -192(%rbp)        ## 8-byte Spill
	jmp	LBB25_11
LBB25_11:
	movq	-192(%rbp), %rax        ## 8-byte Reload
	cmpq	-80(%rbp), %rax
	je	LBB25_16
## %bb.12:
Ltmp29:
	callq	__ZNSt3__1L15__get_nullptr_tEv
Ltmp30:
	movq	%rax, -200(%rbp)        ## 8-byte Spill
	jmp	LBB25_13
LBB25_13:
	movq	-200(%rbp), %rax        ## 8-byte Reload
	movq	%rax, -144(%rbp)
Ltmp31:
	leaq	-144(%rbp), %rdi
	callq	__ZNKSt3__19nullptr_tcvPT_INS_15basic_streambufIcNS_11char_traitsIcEEEEEEv
Ltmp32:
	movq	%rax, -208(%rbp)        ## 8-byte Spill
	jmp	LBB25_14
LBB25_14:
	movq	-208(%rbp), %rax        ## 8-byte Reload
	movq	%rax, -16(%rbp)
	movq	-16(%rbp), %rcx
	movq	%rcx, -8(%rbp)
	movl	$1, -148(%rbp)
	jmp	LBB25_17
LBB25_15:
Ltmp33:
	movl	%edx, %ecx
	movq	%rax, -128(%rbp)
	movl	%ecx, -132(%rbp)
Ltmp34:
	leaq	-120(%rbp), %rdi
	callq	__ZNSt3__112basic_stringIcNS_11char_traitsIcEENS_9allocatorIcEEED1Ev
Ltmp35:
	jmp	LBB25_19
LBB25_16:
	movl	$0, -148(%rbp)
LBB25_17:
	leaq	-120(%rbp), %rdi
	callq	__ZNSt3__112basic_stringIcNS_11char_traitsIcEENS_9allocatorIcEEED1Ev
	movl	-148(%rbp), %eax
	testl	%eax, %eax
	movl	%eax, -212(%rbp)        ## 4-byte Spill
	je	LBB25_18
	jmp	LBB25_29
LBB25_29:
	movl	-212(%rbp), %eax        ## 4-byte Reload
	subl	$1, %eax
	movl	%eax, -216(%rbp)        ## 4-byte Spill
	je	LBB25_25
	jmp	LBB25_28
LBB25_18:
	jmp	LBB25_20
LBB25_19:
	jmp	LBB25_26
LBB25_20:
	movq	-40(%rbp), %rax
	movq	-32(%rbp), %rcx
	subq	%rcx, %rax
	movq	%rax, -88(%rbp)
	cmpq	$0, -88(%rbp)
	jle	LBB25_24
## %bb.21:
	movq	-16(%rbp), %rdi
	movq	-32(%rbp), %rsi
	movq	-88(%rbp), %rdx
	callq	__ZNSt3__115basic_streambufIcNS_11char_traitsIcEEE5sputnEPKcl
	cmpq	-88(%rbp), %rax
	je	LBB25_23
## %bb.22:
	callq	__ZNSt3__1L15__get_nullptr_tEv
	movq	%rax, -160(%rbp)
	leaq	-160(%rbp), %rdi
	callq	__ZNKSt3__19nullptr_tcvPT_INS_15basic_streambufIcNS_11char_traitsIcEEEEEEv
	movq	%rax, -16(%rbp)
	movq	-16(%rbp), %rax
	movq	%rax, -8(%rbp)
	jmp	LBB25_25
LBB25_23:
	jmp	LBB25_24
LBB25_24:
	xorl	%eax, %eax
	movl	%eax, %esi
	movq	-48(%rbp), %rdi
	callq	__ZNSt3__18ios_base5widthEl
	movq	-16(%rbp), %rsi
	movq	%rsi, -8(%rbp)
	movq	%rax, -224(%rbp)        ## 8-byte Spill
LBB25_25:
	movq	-8(%rbp), %rax
	addq	$240, %rsp
	popq	%rbp
	retq
LBB25_26:
	movq	-128(%rbp), %rdi
	callq	__Unwind_Resume
	ud2
LBB25_27:
Ltmp36:
	movq	%rax, %rdi
	movq	%rdx, -232(%rbp)        ## 8-byte Spill
	callq	___clang_call_terminate
LBB25_28:
	ud2
Lfunc_end2:
	.cfi_endproc
	.section	__TEXT,__gcc_except_tab
	.p2align	2
GCC_except_table25:
Lexception2:
	.byte	255                     ## @LPStart Encoding = omit
	.byte	155                     ## @TType Encoding = indirect pcrel sdata4
	.uleb128 Lttbase1-Lttbaseref1
Lttbaseref1:
	.byte	1                       ## Call site Encoding = uleb128
	.uleb128 Lcst_end2-Lcst_begin2
Lcst_begin2:
	.uleb128 Lfunc_begin2-Lfunc_begin2 ## >> Call Site 1 <<
	.uleb128 Ltmp27-Lfunc_begin2    ##   Call between Lfunc_begin2 and Ltmp27
	.byte	0                       ##     has no landing pad
	.byte	0                       ##   On action: cleanup
	.uleb128 Ltmp27-Lfunc_begin2    ## >> Call Site 2 <<
	.uleb128 Ltmp32-Ltmp27          ##   Call between Ltmp27 and Ltmp32
	.uleb128 Ltmp33-Lfunc_begin2    ##     jumps to Ltmp33
	.byte	0                       ##   On action: cleanup
	.uleb128 Ltmp34-Lfunc_begin2    ## >> Call Site 3 <<
	.uleb128 Ltmp35-Ltmp34          ##   Call between Ltmp34 and Ltmp35
	.uleb128 Ltmp36-Lfunc_begin2    ##     jumps to Ltmp36
	.byte	1                       ##   On action: 1
	.uleb128 Ltmp35-Lfunc_begin2    ## >> Call Site 4 <<
	.uleb128 Lfunc_end2-Ltmp35      ##   Call between Ltmp35 and Lfunc_end2
	.byte	0                       ##     has no landing pad
	.byte	0                       ##   On action: cleanup
Lcst_end2:
	.byte	1                       ## >> Action Record 1 <<
                                        ##   Catch TypeInfo 1
	.byte	0                       ##   No further actions
	.p2align	2
                                        ## >> Catch TypeInfos <<
	.long	0                       ## TypeInfo 1
Lttbase1:
	.p2align	2
                                        ## -- End function
	.section	__TEXT,__text,regular,pure_instructions
	.p2align	4, 0x90         ## -- Begin function _ZNSt3__119ostreambuf_iteratorIcNS_11char_traitsIcEEEC1ERNS_13basic_ostreamIcS2_EE
__ZNSt3__119ostreambuf_iteratorIcNS_11char_traitsIcEEEC1ERNS_13basic_ostreamIcS2_EE: ## @_ZNSt3__119ostreambuf_iteratorIcNS_11char_traitsIcEEEC1ERNS_13basic_ostreamIcS2_EE
	.cfi_startproc
## %bb.0:
	pushq	%rbp
	.cfi_def_cfa_offset 16
	.cfi_offset %rbp, -16
	movq	%rsp, %rbp
	.cfi_def_cfa_register %rbp
	subq	$16, %rsp
	movq	%rdi, -8(%rbp)
	movq	%rsi, -16(%rbp)
	movq	-8(%rbp), %rdi
	movq	-16(%rbp), %rsi
	callq	__ZNSt3__119ostreambuf_iteratorIcNS_11char_traitsIcEEEC2ERNS_13basic_ostreamIcS2_EE
	addq	$16, %rsp
	popq	%rbp
	retq
	.cfi_endproc
                                        ## -- End function
	.p2align	4, 0x90         ## -- Begin function _ZNKSt3__18ios_base5flagsEv
__ZNKSt3__18ios_base5flagsEv:           ## @_ZNKSt3__18ios_base5flagsEv
	.cfi_startproc
## %bb.0:
	pushq	%rbp
	.cfi_def_cfa_offset 16
	.cfi_offset %rbp, -16
	movq	%rsp, %rbp
	.cfi_def_cfa_register %rbp
	movq	%rdi, -8(%rbp)
	movq	-8(%rbp), %rdi
	movl	8(%rdi), %eax
	popq	%rbp
	retq
	.cfi_endproc
                                        ## -- End function
	.p2align	4, 0x90         ## -- Begin function _ZNKSt3__19basic_iosIcNS_11char_traitsIcEEE4fillEv
__ZNKSt3__19basic_iosIcNS_11char_traitsIcEEE4fillEv: ## @_ZNKSt3__19basic_iosIcNS_11char_traitsIcEEE4fillEv
	.cfi_startproc
## %bb.0:
	pushq	%rbp
	.cfi_def_cfa_offset 16
	.cfi_offset %rbp, -16
	movq	%rsp, %rbp
	.cfi_def_cfa_register %rbp
	subq	$16, %rsp
	movq	%rdi, -8(%rbp)
	movq	-8(%rbp), %rdi
	movq	%rdi, -16(%rbp)         ## 8-byte Spill
	callq	__ZNSt3__111char_traitsIcE3eofEv
	movq	-16(%rbp), %rdi         ## 8-byte Reload
	movl	144(%rdi), %esi
	movl	%eax, %edi
	callq	__ZNSt3__111char_traitsIcE11eq_int_typeEii
	testb	$1, %al
	jne	LBB28_1
	jmp	LBB28_2
LBB28_1:
	movq	-16(%rbp), %rdi         ## 8-byte Reload
	movl	$32, %esi
	callq	__ZNKSt3__19basic_iosIcNS_11char_traitsIcEEE5widenEc
	movsbl	%al, %esi
	movq	-16(%rbp), %rdi         ## 8-byte Reload
	movl	%esi, 144(%rdi)
LBB28_2:
	movq	-16(%rbp), %rax         ## 8-byte Reload
	movl	144(%rax), %ecx
	movb	%cl, %dl
	movsbl	%dl, %eax
	addq	$16, %rsp
	popq	%rbp
	retq
	.cfi_endproc
                                        ## -- End function
	.p2align	4, 0x90         ## -- Begin function _ZNKSt3__119ostreambuf_iteratorIcNS_11char_traitsIcEEE6failedEv
__ZNKSt3__119ostreambuf_iteratorIcNS_11char_traitsIcEEE6failedEv: ## @_ZNKSt3__119ostreambuf_iteratorIcNS_11char_traitsIcEEE6failedEv
	.cfi_startproc
## %bb.0:
	pushq	%rbp
	.cfi_def_cfa_offset 16
	.cfi_offset %rbp, -16
	movq	%rsp, %rbp
	.cfi_def_cfa_register %rbp
	movq	%rdi, -8(%rbp)
	movq	-8(%rbp), %rdi
	cmpq	$0, (%rdi)
	sete	%al
	andb	$1, %al
	movzbl	%al, %eax
	popq	%rbp
	retq
	.cfi_endproc
                                        ## -- End function
	.p2align	4, 0x90         ## -- Begin function _ZNSt3__19basic_iosIcNS_11char_traitsIcEEE8setstateEj
__ZNSt3__19basic_iosIcNS_11char_traitsIcEEE8setstateEj: ## @_ZNSt3__19basic_iosIcNS_11char_traitsIcEEE8setstateEj
	.cfi_startproc
## %bb.0:
	pushq	%rbp
	.cfi_def_cfa_offset 16
	.cfi_offset %rbp, -16
	movq	%rsp, %rbp
	.cfi_def_cfa_register %rbp
	subq	$16, %rsp
	movq	%rdi, -8(%rbp)
	movl	%esi, -12(%rbp)
	movq	-8(%rbp), %rdi
	movl	-12(%rbp), %esi
	callq	__ZNSt3__18ios_base8setstateEj
	addq	$16, %rsp
	popq	%rbp
	retq
	.cfi_endproc
                                        ## -- End function
	.private_extern	___clang_call_terminate ## -- Begin function __clang_call_terminate
	.globl	___clang_call_terminate
	.weak_definition	___clang_call_terminate
	.p2align	4, 0x90
___clang_call_terminate:                ## @__clang_call_terminate
## %bb.0:
	pushq	%rax
	callq	___cxa_begin_catch
	movq	%rax, (%rsp)            ## 8-byte Spill
	callq	__ZSt9terminatev
                                        ## -- End function
	.p2align	4, 0x90         ## -- Begin function _ZNKSt3__19nullptr_tcvPT_INS_15basic_streambufIcNS_11char_traitsIcEEEEEEv
__ZNKSt3__19nullptr_tcvPT_INS_15basic_streambufIcNS_11char_traitsIcEEEEEEv: ## @_ZNKSt3__19nullptr_tcvPT_INS_15basic_streambufIcNS_11char_traitsIcEEEEEEv
	.cfi_startproc
## %bb.0:
	pushq	%rbp
	.cfi_def_cfa_offset 16
	.cfi_offset %rbp, -16
	movq	%rsp, %rbp
	.cfi_def_cfa_register %rbp
	xorl	%eax, %eax
                                        ## kill: def $rax killed $eax
	movq	%rdi, -8(%rbp)
	popq	%rbp
	retq
	.cfi_endproc
                                        ## -- End function
	.p2align	4, 0x90         ## -- Begin function _ZNKSt3__18ios_base5widthEv
__ZNKSt3__18ios_base5widthEv:           ## @_ZNKSt3__18ios_base5widthEv
	.cfi_startproc
## %bb.0:
	pushq	%rbp
	.cfi_def_cfa_offset 16
	.cfi_offset %rbp, -16
	movq	%rsp, %rbp
	.cfi_def_cfa_register %rbp
	movq	%rdi, -8(%rbp)
	movq	-8(%rbp), %rdi
	movq	24(%rdi), %rax
	popq	%rbp
	retq
	.cfi_endproc
                                        ## -- End function
	.p2align	4, 0x90         ## -- Begin function _ZNSt3__115basic_streambufIcNS_11char_traitsIcEEE5sputnEPKcl
__ZNSt3__115basic_streambufIcNS_11char_traitsIcEEE5sputnEPKcl: ## @_ZNSt3__115basic_streambufIcNS_11char_traitsIcEEE5sputnEPKcl
	.cfi_startproc
## %bb.0:
	pushq	%rbp
	.cfi_def_cfa_offset 16
	.cfi_offset %rbp, -16
	movq	%rsp, %rbp
	.cfi_def_cfa_register %rbp
	subq	$32, %rsp
	movq	%rdi, -8(%rbp)
	movq	%rsi, -16(%rbp)
	movq	%rdx, -24(%rbp)
	movq	-8(%rbp), %rdx
	movq	-16(%rbp), %rsi
	movq	-24(%rbp), %rdi
	movq	(%rdx), %rax
	movq	%rdi, -32(%rbp)         ## 8-byte Spill
	movq	%rdx, %rdi
	movq	-32(%rbp), %rdx         ## 8-byte Reload
	callq	*96(%rax)
	addq	$32, %rsp
	popq	%rbp
	retq
	.cfi_endproc
                                        ## -- End function
	.p2align	4, 0x90         ## -- Begin function _ZNSt3__112basic_stringIcNS_11char_traitsIcEENS_9allocatorIcEEEC1Emc
__ZNSt3__112basic_stringIcNS_11char_traitsIcEENS_9allocatorIcEEEC1Emc: ## @_ZNSt3__112basic_stringIcNS_11char_traitsIcEENS_9allocatorIcEEEC1Emc
	.cfi_startproc
## %bb.0:
	pushq	%rbp
	.cfi_def_cfa_offset 16
	.cfi_offset %rbp, -16
	movq	%rsp, %rbp
	.cfi_def_cfa_register %rbp
	subq	$32, %rsp
	movb	%dl, %al
	movq	%rdi, -8(%rbp)
	movq	%rsi, -16(%rbp)
	movb	%al, -17(%rbp)
	movq	-8(%rbp), %rdi
	movq	-16(%rbp), %rsi
	movsbl	-17(%rbp), %edx
	callq	__ZNSt3__112basic_stringIcNS_11char_traitsIcEENS_9allocatorIcEEEC2Emc
	addq	$32, %rsp
	popq	%rbp
	retq
	.cfi_endproc
                                        ## -- End function
	.p2align	4, 0x90         ## -- Begin function _ZNKSt3__112basic_stringIcNS_11char_traitsIcEENS_9allocatorIcEEE4dataEv
__ZNKSt3__112basic_stringIcNS_11char_traitsIcEENS_9allocatorIcEEE4dataEv: ## @_ZNKSt3__112basic_stringIcNS_11char_traitsIcEENS_9allocatorIcEEE4dataEv
	.cfi_startproc
## %bb.0:
	pushq	%rbp
	.cfi_def_cfa_offset 16
	.cfi_offset %rbp, -16
	movq	%rsp, %rbp
	.cfi_def_cfa_register %rbp
	subq	$16, %rsp
	movq	%rdi, -8(%rbp)
	movq	-8(%rbp), %rdi
	callq	__ZNKSt3__112basic_stringIcNS_11char_traitsIcEENS_9allocatorIcEEE13__get_pointerEv
	movq	%rax, %rdi
	callq	__ZNSt3__1L16__to_raw_pointerIKcEEPT_S3_
	addq	$16, %rsp
	popq	%rbp
	retq
	.cfi_endproc
                                        ## -- End function
	.p2align	4, 0x90         ## -- Begin function _ZNSt3__18ios_base5widthEl
__ZNSt3__18ios_base5widthEl:            ## @_ZNSt3__18ios_base5widthEl
	.cfi_startproc
## %bb.0:
	pushq	%rbp
	.cfi_def_cfa_offset 16
	.cfi_offset %rbp, -16
	movq	%rsp, %rbp
	.cfi_def_cfa_register %rbp
	movq	%rdi, -8(%rbp)
	movq	%rsi, -16(%rbp)
	movq	-8(%rbp), %rsi
	movq	24(%rsi), %rdi
	movq	%rdi, -24(%rbp)
	movq	-16(%rbp), %rdi
	movq	%rdi, 24(%rsi)
	movq	-24(%rbp), %rax
	popq	%rbp
	retq
	.cfi_endproc
                                        ## -- End function
	.p2align	4, 0x90         ## -- Begin function _ZNSt3__112basic_stringIcNS_11char_traitsIcEENS_9allocatorIcEEEC2Emc
__ZNSt3__112basic_stringIcNS_11char_traitsIcEENS_9allocatorIcEEEC2Emc: ## @_ZNSt3__112basic_stringIcNS_11char_traitsIcEENS_9allocatorIcEEEC2Emc
	.cfi_startproc
## %bb.0:
	pushq	%rbp
	.cfi_def_cfa_offset 16
	.cfi_offset %rbp, -16
	movq	%rsp, %rbp
	.cfi_def_cfa_register %rbp
	subq	$32, %rsp
	movb	%dl, %al
	movq	%rdi, -8(%rbp)
	movq	%rsi, -16(%rbp)
	movb	%al, -17(%rbp)
	movq	-8(%rbp), %rsi
	movq	%rsi, %rdi
	movq	%rsi, -32(%rbp)         ## 8-byte Spill
	callq	__ZNSt3__117__compressed_pairINS_12basic_stringIcNS_11char_traitsIcEENS_9allocatorIcEEE5__repES5_EC1Ev
	movq	-16(%rbp), %rsi
	movq	-32(%rbp), %rdi         ## 8-byte Reload
	movsbl	-17(%rbp), %edx
	callq	__ZNSt3__112basic_stringIcNS_11char_traitsIcEENS_9allocatorIcEEE6__initEmc
	addq	$32, %rsp
	popq	%rbp
	retq
	.cfi_endproc
                                        ## -- End function
	.p2align	4, 0x90         ## -- Begin function _ZNSt3__117__compressed_pairINS_12basic_stringIcNS_11char_traitsIcEENS_9allocatorIcEEE5__repES5_EC1Ev
__ZNSt3__117__compressed_pairINS_12basic_stringIcNS_11char_traitsIcEENS_9allocatorIcEEE5__repES5_EC1Ev: ## @_ZNSt3__117__compressed_pairINS_12basic_stringIcNS_11char_traitsIcEENS_9allocatorIcEEE5__repES5_EC1Ev
	.cfi_startproc
## %bb.0:
	pushq	%rbp
	.cfi_def_cfa_offset 16
	.cfi_offset %rbp, -16
	movq	%rsp, %rbp
	.cfi_def_cfa_register %rbp
	subq	$16, %rsp
	movq	%rdi, -8(%rbp)
	movq	-8(%rbp), %rdi
	callq	__ZNSt3__117__compressed_pairINS_12basic_stringIcNS_11char_traitsIcEENS_9allocatorIcEEE5__repES5_EC2Ev
	addq	$16, %rsp
	popq	%rbp
	retq
	.cfi_endproc
                                        ## -- End function
	.p2align	4, 0x90         ## -- Begin function _ZNSt3__117__compressed_pairINS_12basic_stringIcNS_11char_traitsIcEENS_9allocatorIcEEE5__repES5_EC2Ev
__ZNSt3__117__compressed_pairINS_12basic_stringIcNS_11char_traitsIcEENS_9allocatorIcEEE5__repES5_EC2Ev: ## @_ZNSt3__117__compressed_pairINS_12basic_stringIcNS_11char_traitsIcEENS_9allocatorIcEEE5__repES5_EC2Ev
	.cfi_startproc
## %bb.0:
	pushq	%rbp
	.cfi_def_cfa_offset 16
	.cfi_offset %rbp, -16
	movq	%rsp, %rbp
	.cfi_def_cfa_register %rbp
	subq	$16, %rsp
	movq	%rdi, -8(%rbp)
	movq	-8(%rbp), %rdi
	movq	%rdi, %rax
	movq	%rdi, -16(%rbp)         ## 8-byte Spill
	movq	%rax, %rdi
	callq	__ZNSt3__122__compressed_pair_elemINS_12basic_stringIcNS_11char_traitsIcEENS_9allocatorIcEEE5__repELi0ELb0EEC2Ev
	movq	-16(%rbp), %rax         ## 8-byte Reload
	movq	%rax, %rdi
	callq	__ZNSt3__122__compressed_pair_elemINS_9allocatorIcEELi1ELb1EEC2Ev
	addq	$16, %rsp
	popq	%rbp
	retq
	.cfi_endproc
                                        ## -- End function
	.p2align	4, 0x90         ## -- Begin function _ZNSt3__122__compressed_pair_elemINS_12basic_stringIcNS_11char_traitsIcEENS_9allocatorIcEEE5__repELi0ELb0EEC2Ev
__ZNSt3__122__compressed_pair_elemINS_12basic_stringIcNS_11char_traitsIcEENS_9allocatorIcEEE5__repELi0ELb0EEC2Ev: ## @_ZNSt3__122__compressed_pair_elemINS_12basic_stringIcNS_11char_traitsIcEENS_9allocatorIcEEE5__repELi0ELb0EEC2Ev
	.cfi_startproc
## %bb.0:
	pushq	%rbp
	.cfi_def_cfa_offset 16
	.cfi_offset %rbp, -16
	movq	%rsp, %rbp
	.cfi_def_cfa_register %rbp
	subq	$16, %rsp
	xorl	%esi, %esi
	movl	$24, %eax
	movl	%eax, %edx
	movq	%rdi, -8(%rbp)
	movq	-8(%rbp), %rdi
	callq	_memset
	addq	$16, %rsp
	popq	%rbp
	retq
	.cfi_endproc
                                        ## -- End function
	.p2align	4, 0x90         ## -- Begin function _ZNSt3__122__compressed_pair_elemINS_9allocatorIcEELi1ELb1EEC2Ev
__ZNSt3__122__compressed_pair_elemINS_9allocatorIcEELi1ELb1EEC2Ev: ## @_ZNSt3__122__compressed_pair_elemINS_9allocatorIcEELi1ELb1EEC2Ev
	.cfi_startproc
## %bb.0:
	pushq	%rbp
	.cfi_def_cfa_offset 16
	.cfi_offset %rbp, -16
	movq	%rsp, %rbp
	.cfi_def_cfa_register %rbp
	subq	$16, %rsp
	movq	%rdi, -8(%rbp)
	movq	-8(%rbp), %rdi
	callq	__ZNSt3__19allocatorIcEC2Ev
	addq	$16, %rsp
	popq	%rbp
	retq
	.cfi_endproc
                                        ## -- End function
	.p2align	4, 0x90         ## -- Begin function _ZNSt3__19allocatorIcEC2Ev
__ZNSt3__19allocatorIcEC2Ev:            ## @_ZNSt3__19allocatorIcEC2Ev
	.cfi_startproc
## %bb.0:
	pushq	%rbp
	.cfi_def_cfa_offset 16
	.cfi_offset %rbp, -16
	movq	%rsp, %rbp
	.cfi_def_cfa_register %rbp
	movq	%rdi, -8(%rbp)
	popq	%rbp
	retq
	.cfi_endproc
                                        ## -- End function
	.p2align	4, 0x90         ## -- Begin function _ZNSt3__1L16__to_raw_pointerIKcEEPT_S3_
__ZNSt3__1L16__to_raw_pointerIKcEEPT_S3_: ## @_ZNSt3__1L16__to_raw_pointerIKcEEPT_S3_
	.cfi_startproc
## %bb.0:
	pushq	%rbp
	.cfi_def_cfa_offset 16
	.cfi_offset %rbp, -16
	movq	%rsp, %rbp
	.cfi_def_cfa_register %rbp
	movq	%rdi, -8(%rbp)
	movq	-8(%rbp), %rax
	popq	%rbp
	retq
	.cfi_endproc
                                        ## -- End function
	.p2align	4, 0x90         ## -- Begin function _ZNKSt3__112basic_stringIcNS_11char_traitsIcEENS_9allocatorIcEEE13__get_pointerEv
__ZNKSt3__112basic_stringIcNS_11char_traitsIcEENS_9allocatorIcEEE13__get_pointerEv: ## @_ZNKSt3__112basic_stringIcNS_11char_traitsIcEENS_9allocatorIcEEE13__get_pointerEv
	.cfi_startproc
## %bb.0:
	pushq	%rbp
	.cfi_def_cfa_offset 16
	.cfi_offset %rbp, -16
	movq	%rsp, %rbp
	.cfi_def_cfa_register %rbp
	subq	$32, %rsp
	movq	%rdi, -8(%rbp)
	movq	-8(%rbp), %rdi
	movq	%rdi, -16(%rbp)         ## 8-byte Spill
	callq	__ZNKSt3__112basic_stringIcNS_11char_traitsIcEENS_9allocatorIcEEE9__is_longEv
	testb	$1, %al
	jne	LBB45_1
	jmp	LBB45_2
LBB45_1:
	movq	-16(%rbp), %rdi         ## 8-byte Reload
	callq	__ZNKSt3__112basic_stringIcNS_11char_traitsIcEENS_9allocatorIcEEE18__get_long_pointerEv
	movq	%rax, -24(%rbp)         ## 8-byte Spill
	jmp	LBB45_3
LBB45_2:
	movq	-16(%rbp), %rdi         ## 8-byte Reload
	callq	__ZNKSt3__112basic_stringIcNS_11char_traitsIcEENS_9allocatorIcEEE19__get_short_pointerEv
	movq	%rax, -24(%rbp)         ## 8-byte Spill
LBB45_3:
	movq	-24(%rbp), %rax         ## 8-byte Reload
	addq	$32, %rsp
	popq	%rbp
	retq
	.cfi_endproc
                                        ## -- End function
	.p2align	4, 0x90         ## -- Begin function _ZNKSt3__112basic_stringIcNS_11char_traitsIcEENS_9allocatorIcEEE9__is_longEv
__ZNKSt3__112basic_stringIcNS_11char_traitsIcEENS_9allocatorIcEEE9__is_longEv: ## @_ZNKSt3__112basic_stringIcNS_11char_traitsIcEENS_9allocatorIcEEE9__is_longEv
	.cfi_startproc
## %bb.0:
	pushq	%rbp
	.cfi_def_cfa_offset 16
	.cfi_offset %rbp, -16
	movq	%rsp, %rbp
	.cfi_def_cfa_register %rbp
	subq	$16, %rsp
	movq	%rdi, -8(%rbp)
	movq	-8(%rbp), %rdi
	callq	__ZNKSt3__117__compressed_pairINS_12basic_stringIcNS_11char_traitsIcEENS_9allocatorIcEEE5__repES5_E5firstEv
	movzbl	(%rax), %ecx
	movl	%ecx, %eax
	andq	$1, %rax
	cmpq	$0, %rax
	setne	%dl
	andb	$1, %dl
	movzbl	%dl, %eax
	addq	$16, %rsp
	popq	%rbp
	retq
	.cfi_endproc
                                        ## -- End function
	.p2align	4, 0x90         ## -- Begin function _ZNKSt3__112basic_stringIcNS_11char_traitsIcEENS_9allocatorIcEEE18__get_long_pointerEv
__ZNKSt3__112basic_stringIcNS_11char_traitsIcEENS_9allocatorIcEEE18__get_long_pointerEv: ## @_ZNKSt3__112basic_stringIcNS_11char_traitsIcEENS_9allocatorIcEEE18__get_long_pointerEv
	.cfi_startproc
## %bb.0:
	pushq	%rbp
	.cfi_def_cfa_offset 16
	.cfi_offset %rbp, -16
	movq	%rsp, %rbp
	.cfi_def_cfa_register %rbp
	subq	$16, %rsp
	movq	%rdi, -8(%rbp)
	movq	-8(%rbp), %rdi
	callq	__ZNKSt3__117__compressed_pairINS_12basic_stringIcNS_11char_traitsIcEENS_9allocatorIcEEE5__repES5_E5firstEv
	movq	16(%rax), %rax
	addq	$16, %rsp
	popq	%rbp
	retq
	.cfi_endproc
                                        ## -- End function
	.p2align	4, 0x90         ## -- Begin function _ZNKSt3__112basic_stringIcNS_11char_traitsIcEENS_9allocatorIcEEE19__get_short_pointerEv
__ZNKSt3__112basic_stringIcNS_11char_traitsIcEENS_9allocatorIcEEE19__get_short_pointerEv: ## @_ZNKSt3__112basic_stringIcNS_11char_traitsIcEENS_9allocatorIcEEE19__get_short_pointerEv
	.cfi_startproc
## %bb.0:
	pushq	%rbp
	.cfi_def_cfa_offset 16
	.cfi_offset %rbp, -16
	movq	%rsp, %rbp
	.cfi_def_cfa_register %rbp
	subq	$16, %rsp
	movq	%rdi, -8(%rbp)
	movq	-8(%rbp), %rdi
	callq	__ZNKSt3__117__compressed_pairINS_12basic_stringIcNS_11char_traitsIcEENS_9allocatorIcEEE5__repES5_E5firstEv
	addq	$1, %rax
	movq	%rax, %rdi
	callq	__ZNSt3__114pointer_traitsIPKcE10pointer_toERS1_
	addq	$16, %rsp
	popq	%rbp
	retq
	.cfi_endproc
                                        ## -- End function
	.p2align	4, 0x90         ## -- Begin function _ZNKSt3__117__compressed_pairINS_12basic_stringIcNS_11char_traitsIcEENS_9allocatorIcEEE5__repES5_E5firstEv
__ZNKSt3__117__compressed_pairINS_12basic_stringIcNS_11char_traitsIcEENS_9allocatorIcEEE5__repES5_E5firstEv: ## @_ZNKSt3__117__compressed_pairINS_12basic_stringIcNS_11char_traitsIcEENS_9allocatorIcEEE5__repES5_E5firstEv
	.cfi_startproc
## %bb.0:
	pushq	%rbp
	.cfi_def_cfa_offset 16
	.cfi_offset %rbp, -16
	movq	%rsp, %rbp
	.cfi_def_cfa_register %rbp
	subq	$16, %rsp
	movq	%rdi, -8(%rbp)
	movq	-8(%rbp), %rdi
	callq	__ZNKSt3__122__compressed_pair_elemINS_12basic_stringIcNS_11char_traitsIcEENS_9allocatorIcEEE5__repELi0ELb0EE5__getEv
	addq	$16, %rsp
	popq	%rbp
	retq
	.cfi_endproc
                                        ## -- End function
	.p2align	4, 0x90         ## -- Begin function _ZNKSt3__122__compressed_pair_elemINS_12basic_stringIcNS_11char_traitsIcEENS_9allocatorIcEEE5__repELi0ELb0EE5__getEv
__ZNKSt3__122__compressed_pair_elemINS_12basic_stringIcNS_11char_traitsIcEENS_9allocatorIcEEE5__repELi0ELb0EE5__getEv: ## @_ZNKSt3__122__compressed_pair_elemINS_12basic_stringIcNS_11char_traitsIcEENS_9allocatorIcEEE5__repELi0ELb0EE5__getEv
	.cfi_startproc
## %bb.0:
	pushq	%rbp
	.cfi_def_cfa_offset 16
	.cfi_offset %rbp, -16
	movq	%rsp, %rbp
	.cfi_def_cfa_register %rbp
	movq	%rdi, -8(%rbp)
	movq	-8(%rbp), %rax
	popq	%rbp
	retq
	.cfi_endproc
                                        ## -- End function
	.p2align	4, 0x90         ## -- Begin function _ZNSt3__114pointer_traitsIPKcE10pointer_toERS1_
__ZNSt3__114pointer_traitsIPKcE10pointer_toERS1_: ## @_ZNSt3__114pointer_traitsIPKcE10pointer_toERS1_
	.cfi_startproc
## %bb.0:
	pushq	%rbp
	.cfi_def_cfa_offset 16
	.cfi_offset %rbp, -16
	movq	%rsp, %rbp
	.cfi_def_cfa_register %rbp
	subq	$16, %rsp
	movq	%rdi, -8(%rbp)
	movq	-8(%rbp), %rdi
	callq	__ZNSt3__1L9addressofIKcEEPT_RS2_
	addq	$16, %rsp
	popq	%rbp
	retq
	.cfi_endproc
                                        ## -- End function
	.p2align	4, 0x90         ## -- Begin function _ZNSt3__1L9addressofIKcEEPT_RS2_
__ZNSt3__1L9addressofIKcEEPT_RS2_:      ## @_ZNSt3__1L9addressofIKcEEPT_RS2_
	.cfi_startproc
## %bb.0:
	pushq	%rbp
	.cfi_def_cfa_offset 16
	.cfi_offset %rbp, -16
	movq	%rsp, %rbp
	.cfi_def_cfa_register %rbp
	movq	%rdi, -8(%rbp)
	movq	-8(%rbp), %rax
	popq	%rbp
	retq
	.cfi_endproc
                                        ## -- End function
	.p2align	4, 0x90         ## -- Begin function _ZNSt3__119ostreambuf_iteratorIcNS_11char_traitsIcEEEC2ERNS_13basic_ostreamIcS2_EE
__ZNSt3__119ostreambuf_iteratorIcNS_11char_traitsIcEEEC2ERNS_13basic_ostreamIcS2_EE: ## @_ZNSt3__119ostreambuf_iteratorIcNS_11char_traitsIcEEEC2ERNS_13basic_ostreamIcS2_EE
Lfunc_begin3:
	.cfi_startproc
	.cfi_personality 155, ___gxx_personality_v0
	.cfi_lsda 16, Lexception3
## %bb.0:
	pushq	%rbp
	.cfi_def_cfa_offset 16
	.cfi_offset %rbp, -16
	movq	%rsp, %rbp
	.cfi_def_cfa_register %rbp
	subq	$48, %rsp
	movq	%rdi, -8(%rbp)
	movq	%rsi, -16(%rbp)
	movq	-8(%rbp), %rsi
	movq	-16(%rbp), %rdi
	movq	(%rdi), %rax
	movq	-24(%rax), %rax
	addq	%rax, %rdi
Ltmp37:
	movq	%rsi, -40(%rbp)         ## 8-byte Spill
	callq	__ZNKSt3__19basic_iosIcNS_11char_traitsIcEEE5rdbufEv
Ltmp38:
	movq	%rax, -48(%rbp)         ## 8-byte Spill
	jmp	LBB53_1
LBB53_1:
	movq	-40(%rbp), %rax         ## 8-byte Reload
	movq	-48(%rbp), %rcx         ## 8-byte Reload
	movq	%rcx, (%rax)
	addq	$48, %rsp
	popq	%rbp
	retq
LBB53_2:
Ltmp39:
	movl	%edx, %ecx
	movq	%rax, -24(%rbp)
	movl	%ecx, -28(%rbp)
## %bb.3:
	movq	-24(%rbp), %rdi
	callq	___cxa_call_unexpected
Lfunc_end3:
	.cfi_endproc
	.section	__TEXT,__gcc_except_tab
	.p2align	2
GCC_except_table53:
Lexception3:
	.byte	255                     ## @LPStart Encoding = omit
	.byte	155                     ## @TType Encoding = indirect pcrel sdata4
	.uleb128 Lttbase2-Lttbaseref2
Lttbaseref2:
	.byte	1                       ## Call site Encoding = uleb128
	.uleb128 Lcst_end3-Lcst_begin3
Lcst_begin3:
	.uleb128 Ltmp37-Lfunc_begin3    ## >> Call Site 1 <<
	.uleb128 Ltmp38-Ltmp37          ##   Call between Ltmp37 and Ltmp38
	.uleb128 Ltmp39-Lfunc_begin3    ##     jumps to Ltmp39
	.byte	1                       ##   On action: 1
	.uleb128 Ltmp38-Lfunc_begin3    ## >> Call Site 2 <<
	.uleb128 Lfunc_end3-Ltmp38      ##   Call between Ltmp38 and Lfunc_end3
	.byte	0                       ##     has no landing pad
	.byte	0                       ##   On action: cleanup
Lcst_end3:
	.byte	127                     ## >> Action Record 1 <<
                                        ##   Filter TypeInfo -1
	.byte	0                       ##   No further actions
	.p2align	2
Lttbase2:
                                        ## >> Filter TypeInfos <<
	.byte	0
	.p2align	2
                                        ## -- End function
	.section	__TEXT,__text,regular,pure_instructions
	.p2align	4, 0x90         ## -- Begin function _ZNKSt3__19basic_iosIcNS_11char_traitsIcEEE5rdbufEv
__ZNKSt3__19basic_iosIcNS_11char_traitsIcEEE5rdbufEv: ## @_ZNKSt3__19basic_iosIcNS_11char_traitsIcEEE5rdbufEv
	.cfi_startproc
## %bb.0:
	pushq	%rbp
	.cfi_def_cfa_offset 16
	.cfi_offset %rbp, -16
	movq	%rsp, %rbp
	.cfi_def_cfa_register %rbp
	subq	$16, %rsp
	movq	%rdi, -8(%rbp)
	movq	-8(%rbp), %rdi
	callq	__ZNKSt3__18ios_base5rdbufEv
	addq	$16, %rsp
	popq	%rbp
	retq
	.cfi_endproc
                                        ## -- End function
	.p2align	4, 0x90         ## -- Begin function _ZNKSt3__18ios_base5rdbufEv
__ZNKSt3__18ios_base5rdbufEv:           ## @_ZNKSt3__18ios_base5rdbufEv
	.cfi_startproc
## %bb.0:
	pushq	%rbp
	.cfi_def_cfa_offset 16
	.cfi_offset %rbp, -16
	movq	%rsp, %rbp
	.cfi_def_cfa_register %rbp
	movq	%rdi, -8(%rbp)
	movq	-8(%rbp), %rdi
	movq	40(%rdi), %rax
	popq	%rbp
	retq
	.cfi_endproc
                                        ## -- End function
	.globl	__ZNSt3__111char_traitsIcE11eq_int_typeEii ## -- Begin function _ZNSt3__111char_traitsIcE11eq_int_typeEii
	.weak_definition	__ZNSt3__111char_traitsIcE11eq_int_typeEii
	.p2align	4, 0x90
__ZNSt3__111char_traitsIcE11eq_int_typeEii: ## @_ZNSt3__111char_traitsIcE11eq_int_typeEii
	.cfi_startproc
## %bb.0:
	pushq	%rbp
	.cfi_def_cfa_offset 16
	.cfi_offset %rbp, -16
	movq	%rsp, %rbp
	.cfi_def_cfa_register %rbp
	movl	%edi, -4(%rbp)
	movl	%esi, -8(%rbp)
	movl	-4(%rbp), %esi
	cmpl	-8(%rbp), %esi
	sete	%al
	andb	$1, %al
	movzbl	%al, %eax
	popq	%rbp
	retq
	.cfi_endproc
                                        ## -- End function
	.globl	__ZNSt3__111char_traitsIcE3eofEv ## -- Begin function _ZNSt3__111char_traitsIcE3eofEv
	.weak_definition	__ZNSt3__111char_traitsIcE3eofEv
	.p2align	4, 0x90
__ZNSt3__111char_traitsIcE3eofEv:       ## @_ZNSt3__111char_traitsIcE3eofEv
	.cfi_startproc
## %bb.0:
	pushq	%rbp
	.cfi_def_cfa_offset 16
	.cfi_offset %rbp, -16
	movq	%rsp, %rbp
	.cfi_def_cfa_register %rbp
	movl	$4294967295, %eax       ## imm = 0xFFFFFFFF
	popq	%rbp
	retq
	.cfi_endproc
                                        ## -- End function
	.p2align	4, 0x90         ## -- Begin function _ZNKSt3__19basic_iosIcNS_11char_traitsIcEEE5widenEc
__ZNKSt3__19basic_iosIcNS_11char_traitsIcEEE5widenEc: ## @_ZNKSt3__19basic_iosIcNS_11char_traitsIcEEE5widenEc
Lfunc_begin4:
	.cfi_startproc
	.cfi_personality 155, ___gxx_personality_v0
	.cfi_lsda 16, Lexception4
## %bb.0:
	pushq	%rbp
	.cfi_def_cfa_offset 16
	.cfi_offset %rbp, -16
	movq	%rsp, %rbp
	.cfi_def_cfa_register %rbp
	subq	$80, %rsp
	movb	%sil, %al
	movq	%rdi, -8(%rbp)
	movb	%al, -9(%rbp)
	movq	-8(%rbp), %rsi
	leaq	-24(%rbp), %rdi
	movq	%rdi, -48(%rbp)         ## 8-byte Spill
	callq	__ZNKSt3__18ios_base6getlocEv
Ltmp40:
	movq	-48(%rbp), %rdi         ## 8-byte Reload
	callq	__ZNSt3__1L9use_facetINS_5ctypeIcEEEERKT_RKNS_6localeE
Ltmp41:
	movq	%rax, -56(%rbp)         ## 8-byte Spill
	jmp	LBB58_1
LBB58_1:
	movsbl	-9(%rbp), %esi
Ltmp42:
	movq	-56(%rbp), %rdi         ## 8-byte Reload
	callq	__ZNKSt3__15ctypeIcE5widenEc
Ltmp43:
	movb	%al, -57(%rbp)          ## 1-byte Spill
	jmp	LBB58_2
LBB58_2:
	leaq	-24(%rbp), %rdi
	callq	__ZNSt3__16localeD1Ev
	movb	-57(%rbp), %al          ## 1-byte Reload
	movsbl	%al, %eax
	addq	$80, %rsp
	popq	%rbp
	retq
LBB58_3:
Ltmp44:
	movl	%edx, %ecx
	movq	%rax, -32(%rbp)
	movl	%ecx, -36(%rbp)
Ltmp45:
	leaq	-24(%rbp), %rdi
	callq	__ZNSt3__16localeD1Ev
Ltmp46:
	jmp	LBB58_4
LBB58_4:
	jmp	LBB58_5
LBB58_5:
	movq	-32(%rbp), %rdi
	callq	__Unwind_Resume
	ud2
LBB58_6:
Ltmp47:
	movq	%rax, %rdi
	movq	%rdx, -72(%rbp)         ## 8-byte Spill
	callq	___clang_call_terminate
Lfunc_end4:
	.cfi_endproc
	.section	__TEXT,__gcc_except_tab
	.p2align	2
GCC_except_table58:
Lexception4:
	.byte	255                     ## @LPStart Encoding = omit
	.byte	155                     ## @TType Encoding = indirect pcrel sdata4
	.uleb128 Lttbase3-Lttbaseref3
Lttbaseref3:
	.byte	1                       ## Call site Encoding = uleb128
	.uleb128 Lcst_end4-Lcst_begin4
Lcst_begin4:
	.uleb128 Lfunc_begin4-Lfunc_begin4 ## >> Call Site 1 <<
	.uleb128 Ltmp40-Lfunc_begin4    ##   Call between Lfunc_begin4 and Ltmp40
	.byte	0                       ##     has no landing pad
	.byte	0                       ##   On action: cleanup
	.uleb128 Ltmp40-Lfunc_begin4    ## >> Call Site 2 <<
	.uleb128 Ltmp43-Ltmp40          ##   Call between Ltmp40 and Ltmp43
	.uleb128 Ltmp44-Lfunc_begin4    ##     jumps to Ltmp44
	.byte	0                       ##   On action: cleanup
	.uleb128 Ltmp43-Lfunc_begin4    ## >> Call Site 3 <<
	.uleb128 Ltmp45-Ltmp43          ##   Call between Ltmp43 and Ltmp45
	.byte	0                       ##     has no landing pad
	.byte	0                       ##   On action: cleanup
	.uleb128 Ltmp45-Lfunc_begin4    ## >> Call Site 4 <<
	.uleb128 Ltmp46-Ltmp45          ##   Call between Ltmp45 and Ltmp46
	.uleb128 Ltmp47-Lfunc_begin4    ##     jumps to Ltmp47
	.byte	1                       ##   On action: 1
	.uleb128 Ltmp46-Lfunc_begin4    ## >> Call Site 5 <<
	.uleb128 Lfunc_end4-Ltmp46      ##   Call between Ltmp46 and Lfunc_end4
	.byte	0                       ##     has no landing pad
	.byte	0                       ##   On action: cleanup
Lcst_end4:
	.byte	1                       ## >> Action Record 1 <<
                                        ##   Catch TypeInfo 1
	.byte	0                       ##   No further actions
	.p2align	2
                                        ## >> Catch TypeInfos <<
	.long	0                       ## TypeInfo 1
Lttbase3:
	.p2align	2
                                        ## -- End function
	.section	__TEXT,__text,regular,pure_instructions
	.p2align	4, 0x90         ## -- Begin function _ZNSt3__1L9use_facetINS_5ctypeIcEEEERKT_RKNS_6localeE
__ZNSt3__1L9use_facetINS_5ctypeIcEEEERKT_RKNS_6localeE: ## @_ZNSt3__1L9use_facetINS_5ctypeIcEEEERKT_RKNS_6localeE
	.cfi_startproc
## %bb.0:
	pushq	%rbp
	.cfi_def_cfa_offset 16
	.cfi_offset %rbp, -16
	movq	%rsp, %rbp
	.cfi_def_cfa_register %rbp
	subq	$16, %rsp
	movq	__ZNSt3__15ctypeIcE2idE@GOTPCREL(%rip), %rsi
	movq	%rdi, -8(%rbp)
	movq	-8(%rbp), %rdi
	callq	__ZNKSt3__16locale9use_facetERNS0_2idE
	addq	$16, %rsp
	popq	%rbp
	retq
	.cfi_endproc
                                        ## -- End function
	.p2align	4, 0x90         ## -- Begin function _ZNKSt3__15ctypeIcE5widenEc
__ZNKSt3__15ctypeIcE5widenEc:           ## @_ZNKSt3__15ctypeIcE5widenEc
	.cfi_startproc
## %bb.0:
	pushq	%rbp
	.cfi_def_cfa_offset 16
	.cfi_offset %rbp, -16
	movq	%rsp, %rbp
	.cfi_def_cfa_register %rbp
	subq	$16, %rsp
	movb	%sil, %al
	movq	%rdi, -8(%rbp)
	movb	%al, -9(%rbp)
	movq	-8(%rbp), %rdi
	movb	-9(%rbp), %al
	movq	(%rdi), %rcx
	movsbl	%al, %esi
	callq	*56(%rcx)
	movsbl	%al, %eax
	addq	$16, %rsp
	popq	%rbp
	retq
	.cfi_endproc
                                        ## -- End function
	.p2align	4, 0x90         ## -- Begin function _ZNSt3__18ios_base8setstateEj
__ZNSt3__18ios_base8setstateEj:         ## @_ZNSt3__18ios_base8setstateEj
	.cfi_startproc
## %bb.0:
	pushq	%rbp
	.cfi_def_cfa_offset 16
	.cfi_offset %rbp, -16
	movq	%rsp, %rbp
	.cfi_def_cfa_register %rbp
	subq	$16, %rsp
	movq	%rdi, -8(%rbp)
	movl	%esi, -12(%rbp)
	movq	-8(%rbp), %rdi
	movl	32(%rdi), %esi
	orl	-12(%rbp), %esi
	callq	__ZNSt3__18ios_base5clearEj
	addq	$16, %rsp
	popq	%rbp
	retq
	.cfi_endproc
                                        ## -- End function
	.section	__TEXT,__cstring,cstring_literals
L_.str:                                 ## @.str
	.asciz	"Testing Mean::Calculate()"

L_.str.1:                               ## @.str.1
	.asciz	"  FAILED"

L_.str.2:                               ## @.str.2
	.asciz	"  PASSED"

	.section	__TEXT,__const
	.p2align	4               ## @_ZZ17TestMeanCalculatePN7csce2409StatisticEE5kData
__ZZ17TestMeanCalculatePN7csce2409StatisticEE5kData:
	.quad	4629981891913580544     ## double 34
	.quad	4632796641680687104     ## double 54
	.quad	4636666922610458624     ## double 99
	.quad	4636878028842991616     ## double 102
	.quad	4631248529308778496     ## double 43

	.section	__TEXT,__cstring,cstring_literals
L_.str.3:                               ## @.str.3
	.asciz	"  Expected: "

L_.str.4:                               ## @.str.4
	.asciz	", Actual: "

	.section	__DATA,__const
	.globl	__ZTVN7csce2409StatisticE ## @_ZTVN7csce2409StatisticE
	.weak_def_can_be_hidden	__ZTVN7csce2409StatisticE
	.p2align	3
__ZTVN7csce2409StatisticE:
	.quad	0
	.quad	__ZTIN7csce2409StatisticE
	.quad	__ZN7csce2409StatisticD1Ev
	.quad	__ZN7csce2409StatisticD0Ev
	.quad	___cxa_pure_virtual
	.quad	___cxa_pure_virtual

	.section	__TEXT,__const
	.globl	__ZTSN7csce2409StatisticE ## @_ZTSN7csce2409StatisticE
	.weak_definition	__ZTSN7csce2409StatisticE
	.p2align	4
__ZTSN7csce2409StatisticE:
	.asciz	"N7csce2409StatisticE"

	.globl	__ZTSNSt3__16vectorIdNS_9allocatorIdEEEE ## @_ZTSNSt3__16vectorIdNS_9allocatorIdEEEE
	.weak_definition	__ZTSNSt3__16vectorIdNS_9allocatorIdEEEE
	.p2align	4
__ZTSNSt3__16vectorIdNS_9allocatorIdEEEE:
	.asciz	"NSt3__16vectorIdNS_9allocatorIdEEEE"

	.globl	__ZTSNSt3__113__vector_baseIdNS_9allocatorIdEEEE ## @_ZTSNSt3__113__vector_baseIdNS_9allocatorIdEEEE
	.weak_definition	__ZTSNSt3__113__vector_baseIdNS_9allocatorIdEEEE
	.p2align	4
__ZTSNSt3__113__vector_baseIdNS_9allocatorIdEEEE:
	.asciz	"NSt3__113__vector_baseIdNS_9allocatorIdEEEE"

	.globl	__ZTSNSt3__120__vector_base_commonILb1EEE ## @_ZTSNSt3__120__vector_base_commonILb1EEE
	.weak_definition	__ZTSNSt3__120__vector_base_commonILb1EEE
	.p2align	4
__ZTSNSt3__120__vector_base_commonILb1EEE:
	.asciz	"NSt3__120__vector_base_commonILb1EEE"

	.section	__DATA,__const
	.globl	__ZTINSt3__120__vector_base_commonILb1EEE ## @_ZTINSt3__120__vector_base_commonILb1EEE
	.weak_definition	__ZTINSt3__120__vector_base_commonILb1EEE
	.p2align	3
__ZTINSt3__120__vector_base_commonILb1EEE:
	.quad	__ZTVN10__cxxabiv117__class_type_infoE+16
	.quad	__ZTSNSt3__120__vector_base_commonILb1EEE

	.globl	__ZTINSt3__113__vector_baseIdNS_9allocatorIdEEEE ## @_ZTINSt3__113__vector_baseIdNS_9allocatorIdEEEE
	.weak_definition	__ZTINSt3__113__vector_baseIdNS_9allocatorIdEEEE
	.p2align	4
__ZTINSt3__113__vector_baseIdNS_9allocatorIdEEEE:
	.quad	__ZTVN10__cxxabiv121__vmi_class_type_infoE+16
	.quad	__ZTSNSt3__113__vector_baseIdNS_9allocatorIdEEEE
	.long	0                       ## 0x0
	.long	1                       ## 0x1
	.quad	__ZTINSt3__120__vector_base_commonILb1EEE
	.quad	0                       ## 0x0

	.globl	__ZTINSt3__16vectorIdNS_9allocatorIdEEEE ## @_ZTINSt3__16vectorIdNS_9allocatorIdEEEE
	.weak_definition	__ZTINSt3__16vectorIdNS_9allocatorIdEEEE
	.p2align	4
__ZTINSt3__16vectorIdNS_9allocatorIdEEEE:
	.quad	__ZTVN10__cxxabiv121__vmi_class_type_infoE+16
	.quad	__ZTSNSt3__16vectorIdNS_9allocatorIdEEEE
	.long	0                       ## 0x0
	.long	1                       ## 0x1
	.quad	__ZTINSt3__113__vector_baseIdNS_9allocatorIdEEEE
	.quad	0                       ## 0x0

	.globl	__ZTIN7csce2409StatisticE ## @_ZTIN7csce2409StatisticE
	.weak_definition	__ZTIN7csce2409StatisticE
	.p2align	4
__ZTIN7csce2409StatisticE:
	.quad	__ZTVN10__cxxabiv121__vmi_class_type_infoE+16
	.quad	__ZTSN7csce2409StatisticE
	.long	0                       ## 0x0
	.long	1                       ## 0x1
	.quad	__ZTINSt3__16vectorIdNS_9allocatorIdEEEE
	.quad	2050                    ## 0x802


.subsections_via_symbols
